In archive libArduinoCamera.a:

CameraOV7670.o:     file format elf32-avr

Sections:
Idx Name          Size      VMA       LMA       File off  Algn
  0 .text         00000046  00000000  00000000  00000034  2**0
                  CONTENTS, ALLOC, LOAD, RELOC, READONLY, CODE
  1 .data         0000000c  00000000  00000000  0000007a  2**0
                  CONTENTS, ALLOC, LOAD, RELOC, DATA
  2 .bss          00000000  00000000  00000000  00000086  2**0
                  ALLOC
Disassembly of section .text:

00000000 <_ZN12CameraOV76709readFrameEP12OutputStream>:
   0:	80 e0       	ldi	r24, 0x00	; 0
   2:	90 e0       	ldi	r25, 0x00	; 0
   4:	08 95       	ret

00000006 <_ZN12CameraOV7670C1EPFhvEhh>:
   6:	fc 01       	movw	r30, r24
   8:	80 e0       	ldi	r24, 0x00	; 0
   a:	90 e0       	ldi	r25, 0x00	; 0
   c:	91 83       	std	Z+1, r25	; 0x01
   e:	80 83       	st	Z, r24
  10:	73 83       	std	Z+3, r23	; 0x03
  12:	62 83       	std	Z+2, r22	; 0x02
  14:	44 83       	std	Z+4, r20	; 0x04
  16:	25 83       	std	Z+5, r18	; 0x05
  18:	82 e4       	ldi	r24, 0x42	; 66
  1a:	86 83       	std	Z+6, r24	; 0x06
  1c:	80 e0       	ldi	r24, 0x00	; 0
  1e:	90 e0       	ldi	r25, 0x00	; 0
  20:	0e 94 00 00 	call	0	; 0x0 <_ZN12CameraOV76709readFrameEP12OutputStream>
  24:	08 95       	ret

00000026 <_ZN12CameraOV7670C2EPFhvEhh>:
  26:	fc 01       	movw	r30, r24
  28:	80 e0       	ldi	r24, 0x00	; 0
  2a:	90 e0       	ldi	r25, 0x00	; 0
  2c:	91 83       	std	Z+1, r25	; 0x01
  2e:	80 83       	st	Z, r24
  30:	73 83       	std	Z+3, r23	; 0x03
  32:	62 83       	std	Z+2, r22	; 0x02
  34:	44 83       	std	Z+4, r20	; 0x04
  36:	25 83       	std	Z+5, r18	; 0x05
  38:	82 e4       	ldi	r24, 0x42	; 66
  3a:	86 83       	std	Z+6, r24	; 0x06
  3c:	80 e0       	ldi	r24, 0x00	; 0
  3e:	90 e0       	ldi	r25, 0x00	; 0
  40:	0e 94 00 00 	call	0	; 0x0 <_ZN12CameraOV76709readFrameEP12OutputStream>
  44:	08 95       	ret

CameraAL422B.o:     file format elf32-avr

Sections:
Idx Name          Size      VMA       LMA       File off  Algn
  0 .text         00000606  00000000  00000000  00000034  2**0
                  CONTENTS, ALLOC, LOAD, RELOC, READONLY, CODE
  1 .data         0000000c  00000000  00000000  0000063a  2**0
                  CONTENTS, ALLOC, LOAD, RELOC, DATA
  2 .bss          00000000  00000000  00000000  00000646  2**0
                  ALLOC
Disassembly of section .text:

00000000 <_ZN12CameraAL422BC2EPFhvEhhhh>:
   0:	ef 92       	push	r14
   2:	0f 93       	push	r16
   4:	fc 01       	movw	r30, r24
   6:	80 e0       	ldi	r24, 0x00	; 0
   8:	90 e0       	ldi	r25, 0x00	; 0
   a:	91 83       	std	Z+1, r25	; 0x01
   c:	80 83       	st	Z, r24
   e:	73 83       	std	Z+3, r23	; 0x03
  10:	62 83       	std	Z+2, r22	; 0x02
  12:	44 83       	std	Z+4, r20	; 0x04
  14:	25 83       	std	Z+5, r18	; 0x05
  16:	06 83       	std	Z+6, r16	; 0x06
  18:	e7 82       	std	Z+7, r14	; 0x07
  1a:	82 e4       	ldi	r24, 0x42	; 66
  1c:	80 87       	std	Z+8, r24	; 0x08
  1e:	80 e8       	ldi	r24, 0x80	; 128
  20:	92 e0       	ldi	r25, 0x02	; 2
  22:	92 87       	std	Z+10, r25	; 0x0a
  24:	81 87       	std	Z+9, r24	; 0x09
  26:	80 ee       	ldi	r24, 0xE0	; 224
  28:	91 e0       	ldi	r25, 0x01	; 1
  2a:	94 87       	std	Z+12, r25	; 0x0c
  2c:	83 87       	std	Z+11, r24	; 0x0b
  2e:	0f 91       	pop	r16
  30:	ef 90       	pop	r14
  32:	08 95       	ret

00000034 <_ZN12CameraAL422BC1EPFhvEhhhh>:
  34:	ef 92       	push	r14
  36:	0f 93       	push	r16
  38:	fc 01       	movw	r30, r24
  3a:	80 e0       	ldi	r24, 0x00	; 0
  3c:	90 e0       	ldi	r25, 0x00	; 0
  3e:	91 83       	std	Z+1, r25	; 0x01
  40:	80 83       	st	Z, r24
  42:	73 83       	std	Z+3, r23	; 0x03
  44:	62 83       	std	Z+2, r22	; 0x02
  46:	44 83       	std	Z+4, r20	; 0x04
  48:	25 83       	std	Z+5, r18	; 0x05
  4a:	06 83       	std	Z+6, r16	; 0x06
  4c:	e7 82       	std	Z+7, r14	; 0x07
  4e:	82 e4       	ldi	r24, 0x42	; 66
  50:	80 87       	std	Z+8, r24	; 0x08
  52:	80 e8       	ldi	r24, 0x80	; 128
  54:	92 e0       	ldi	r25, 0x02	; 2
  56:	92 87       	std	Z+10, r25	; 0x0a
  58:	81 87       	std	Z+9, r24	; 0x09
  5a:	80 ee       	ldi	r24, 0xE0	; 224
  5c:	91 e0       	ldi	r25, 0x01	; 1
  5e:	94 87       	std	Z+12, r25	; 0x0c
  60:	83 87       	std	Z+11, r24	; 0x0b
  62:	0f 91       	pop	r16
  64:	ef 90       	pop	r14
  66:	08 95       	ret

00000068 <_ZN12CameraAL422B7captureEv>:
  68:	0f 93       	push	r16
  6a:	1f 93       	push	r17
  6c:	cf 93       	push	r28
  6e:	df 93       	push	r29
  70:	ec 01       	movw	r28, r24
  72:	ac 81       	ldd	r26, Y+4	; 0x04
  74:	6a 2f       	mov	r22, r26
  76:	70 e0       	ldi	r23, 0x00	; 0
  78:	8b 01       	movw	r16, r22
  7a:	0e 50       	subi	r16, 0x0E	; 14
  7c:	10 40       	sbci	r17, 0x00	; 0
  7e:	fb 01       	movw	r30, r22
  80:	38 97       	sbiw	r30, 0x08	; 8
  82:	a8 30       	cpi	r26, 0x08	; 8
  84:	00 f4       	brcc	.+0      	; 0x86 <_ZN12CameraAL422B7captureEv+0x1e>
  86:	8b b1       	in	r24, 0x0b	; 11
  88:	90 e0       	ldi	r25, 0x00	; 0
  8a:	06 2e       	mov	r0, r22
  8c:	00 c0       	rjmp	.+0      	; 0x8e <_ZN12CameraAL422B7captureEv+0x26>
  8e:	95 95       	asr	r25
  90:	87 95       	ror	r24
  92:	0a 94       	dec	r0
  94:	02 f4       	brpl	.+0      	; 0x96 <_ZN12CameraAL422B7captureEv+0x2e>
  96:	00 c0       	rjmp	.+0      	; 0x98 <_ZN12CameraAL422B7captureEv+0x30>
  98:	ae 30       	cpi	r26, 0x0E	; 14
  9a:	00 f0       	brcs	.+0      	; 0x9c <_ZN12CameraAL422B7captureEv+0x34>
  9c:	88 b1       	in	r24, 0x08	; 8
  9e:	90 e0       	ldi	r25, 0x00	; 0
  a0:	00 2e       	mov	r0, r16
  a2:	00 c0       	rjmp	.+0      	; 0xa4 <_ZN12CameraAL422B7captureEv+0x3c>
  a4:	95 95       	asr	r25
  a6:	87 95       	ror	r24
  a8:	0a 94       	dec	r0
  aa:	02 f4       	brpl	.+0      	; 0xac <_ZN12CameraAL422B7captureEv+0x44>
  ac:	00 c0       	rjmp	.+0      	; 0xae <_ZN12CameraAL422B7captureEv+0x46>
  ae:	85 b1       	in	r24, 0x05	; 5
  b0:	90 e0       	ldi	r25, 0x00	; 0
  b2:	0e 2e       	mov	r0, r30
  b4:	00 c0       	rjmp	.+0      	; 0xb6 <_ZN12CameraAL422B7captureEv+0x4e>
  b6:	95 95       	asr	r25
  b8:	87 95       	ror	r24
  ba:	0a 94       	dec	r0
  bc:	02 f4       	brpl	.+0      	; 0xbe <_ZN12CameraAL422B7captureEv+0x56>
  be:	81 70       	andi	r24, 0x01	; 1
  c0:	01 f4       	brne	.+0      	; 0xc2 <_ZN12CameraAL422B7captureEv+0x5a>
  c2:	a8 30       	cpi	r26, 0x08	; 8
  c4:	00 f0       	brcs	.+0      	; 0xc6 <_ZN12CameraAL422B7captureEv+0x5e>
  c6:	8b b1       	in	r24, 0x0b	; 11
  c8:	90 e0       	ldi	r25, 0x00	; 0
  ca:	06 2e       	mov	r0, r22
  cc:	00 c0       	rjmp	.+0      	; 0xce <_ZN12CameraAL422B7captureEv+0x66>
  ce:	95 95       	asr	r25
  d0:	87 95       	ror	r24
  d2:	0a 94       	dec	r0
  d4:	02 f4       	brpl	.+0      	; 0xd6 <_ZN12CameraAL422B7captureEv+0x6e>
  d6:	00 c0       	rjmp	.+0      	; 0xd8 <_ZN12CameraAL422B7captureEv+0x70>
  d8:	85 b1       	in	r24, 0x05	; 5
  da:	90 e0       	ldi	r25, 0x00	; 0
  dc:	0e 2e       	mov	r0, r30
  de:	00 c0       	rjmp	.+0      	; 0xe0 <_ZN12CameraAL422B7captureEv+0x78>
  e0:	95 95       	asr	r25
  e2:	87 95       	ror	r24
  e4:	0a 94       	dec	r0
  e6:	02 f4       	brpl	.+0      	; 0xe8 <_ZN12CameraAL422B7captureEv+0x80>
  e8:	81 70       	andi	r24, 0x01	; 1
  ea:	01 f4       	brne	.+0      	; 0xec <_ZN12CameraAL422B7captureEv+0x84>
  ec:	3d 81       	ldd	r19, Y+5	; 0x05
  ee:	38 30       	cpi	r19, 0x08	; 8
  f0:	00 f4       	brcc	.+0      	; 0xf2 <_ZN12CameraAL422B7captureEv+0x8a>
  f2:	2b b1       	in	r18, 0x0b	; 11
  f4:	81 e0       	ldi	r24, 0x01	; 1
  f6:	90 e0       	ldi	r25, 0x00	; 0
  f8:	03 2e       	mov	r0, r19
  fa:	00 c0       	rjmp	.+0      	; 0xfc <_ZN12CameraAL422B7captureEv+0x94>
  fc:	88 0f       	add	r24, r24
  fe:	99 1f       	adc	r25, r25
 100:	0a 94       	dec	r0
 102:	02 f4       	brpl	.+0      	; 0x104 <_ZN12CameraAL422B7captureEv+0x9c>
 104:	80 95       	com	r24
 106:	82 23       	and	r24, r18
 108:	8b b9       	out	0x0b, r24	; 11
 10a:	00 c0       	rjmp	.+0      	; 0x10c <_ZN12CameraAL422B7captureEv+0xa4>
 10c:	43 2f       	mov	r20, r19
 10e:	50 e0       	ldi	r21, 0x00	; 0
 110:	3e 30       	cpi	r19, 0x0E	; 14
 112:	00 f0       	brcs	.+0      	; 0x114 <_ZN12CameraAL422B7captureEv+0xac>
 114:	28 b1       	in	r18, 0x08	; 8
 116:	4e 50       	subi	r20, 0x0E	; 14
 118:	50 40       	sbci	r21, 0x00	; 0
 11a:	81 e0       	ldi	r24, 0x01	; 1
 11c:	90 e0       	ldi	r25, 0x00	; 0
 11e:	00 c0       	rjmp	.+0      	; 0x120 <_ZN12CameraAL422B7captureEv+0xb8>
 120:	88 0f       	add	r24, r24
 122:	99 1f       	adc	r25, r25
 124:	4a 95       	dec	r20
 126:	02 f4       	brpl	.+0      	; 0x128 <_ZN12CameraAL422B7captureEv+0xc0>
 128:	80 95       	com	r24
 12a:	82 23       	and	r24, r18
 12c:	88 b9       	out	0x08, r24	; 8
 12e:	00 c0       	rjmp	.+0      	; 0x130 <_ZN12CameraAL422B7captureEv+0xc8>
 130:	25 b1       	in	r18, 0x05	; 5
 132:	48 50       	subi	r20, 0x08	; 8
 134:	50 40       	sbci	r21, 0x00	; 0
 136:	81 e0       	ldi	r24, 0x01	; 1
 138:	90 e0       	ldi	r25, 0x00	; 0
 13a:	00 c0       	rjmp	.+0      	; 0x13c <_ZN12CameraAL422B7captureEv+0xd4>
 13c:	88 0f       	add	r24, r24
 13e:	99 1f       	adc	r25, r25
 140:	4a 95       	dec	r20
 142:	02 f4       	brpl	.+0      	; 0x144 <_ZN12CameraAL422B7captureEv+0xdc>
 144:	80 95       	com	r24
 146:	82 23       	and	r24, r18
 148:	85 b9       	out	0x05, r24	; 5
 14a:	a8 30       	cpi	r26, 0x08	; 8
 14c:	00 f4       	brcc	.+0      	; 0x14e <_ZN12CameraAL422B7captureEv+0xe6>
 14e:	8b b1       	in	r24, 0x0b	; 11
 150:	90 e0       	ldi	r25, 0x00	; 0
 152:	06 2e       	mov	r0, r22
 154:	00 c0       	rjmp	.+0      	; 0x156 <_ZN12CameraAL422B7captureEv+0xee>
 156:	95 95       	asr	r25
 158:	87 95       	ror	r24
 15a:	0a 94       	dec	r0
 15c:	02 f4       	brpl	.+0      	; 0x15e <_ZN12CameraAL422B7captureEv+0xf6>
 15e:	00 c0       	rjmp	.+0      	; 0x160 <_ZN12CameraAL422B7captureEv+0xf8>
 160:	ae 30       	cpi	r26, 0x0E	; 14
 162:	00 f0       	brcs	.+0      	; 0x164 <_ZN12CameraAL422B7captureEv+0xfc>
 164:	88 b1       	in	r24, 0x08	; 8
 166:	90 e0       	ldi	r25, 0x00	; 0
 168:	00 2e       	mov	r0, r16
 16a:	00 c0       	rjmp	.+0      	; 0x16c <_ZN12CameraAL422B7captureEv+0x104>
 16c:	95 95       	asr	r25
 16e:	87 95       	ror	r24
 170:	0a 94       	dec	r0
 172:	02 f4       	brpl	.+0      	; 0x174 <_ZN12CameraAL422B7captureEv+0x10c>
 174:	00 c0       	rjmp	.+0      	; 0x176 <_ZN12CameraAL422B7captureEv+0x10e>
 176:	85 b1       	in	r24, 0x05	; 5
 178:	90 e0       	ldi	r25, 0x00	; 0
 17a:	0e 2e       	mov	r0, r30
 17c:	00 c0       	rjmp	.+0      	; 0x17e <_ZN12CameraAL422B7captureEv+0x116>
 17e:	95 95       	asr	r25
 180:	87 95       	ror	r24
 182:	0a 94       	dec	r0
 184:	02 f4       	brpl	.+0      	; 0x186 <_ZN12CameraAL422B7captureEv+0x11e>
 186:	81 70       	andi	r24, 0x01	; 1
 188:	01 f4       	brne	.+0      	; 0x18a <_ZN12CameraAL422B7captureEv+0x122>
 18a:	38 30       	cpi	r19, 0x08	; 8
 18c:	00 f4       	brcc	.+0      	; 0x18e <_ZN12CameraAL422B7captureEv+0x126>
 18e:	2b b1       	in	r18, 0x0b	; 11
 190:	81 e0       	ldi	r24, 0x01	; 1
 192:	90 e0       	ldi	r25, 0x00	; 0
 194:	00 c0       	rjmp	.+0      	; 0x196 <_ZN12CameraAL422B7captureEv+0x12e>
 196:	88 0f       	add	r24, r24
 198:	99 1f       	adc	r25, r25
 19a:	3a 95       	dec	r19
 19c:	02 f4       	brpl	.+0      	; 0x19e <_ZN12CameraAL422B7captureEv+0x136>
 19e:	28 2b       	or	r18, r24
 1a0:	2b b9       	out	0x0b, r18	; 11
 1a2:	00 c0       	rjmp	.+0      	; 0x1a4 <_ZN12CameraAL422B7captureEv+0x13c>
 1a4:	43 2f       	mov	r20, r19
 1a6:	50 e0       	ldi	r21, 0x00	; 0
 1a8:	3e 30       	cpi	r19, 0x0E	; 14
 1aa:	00 f0       	brcs	.+0      	; 0x1ac <_ZN12CameraAL422B7captureEv+0x144>
 1ac:	28 b1       	in	r18, 0x08	; 8
 1ae:	4e 50       	subi	r20, 0x0E	; 14
 1b0:	50 40       	sbci	r21, 0x00	; 0
 1b2:	81 e0       	ldi	r24, 0x01	; 1
 1b4:	90 e0       	ldi	r25, 0x00	; 0
 1b6:	00 c0       	rjmp	.+0      	; 0x1b8 <_ZN12CameraAL422B7captureEv+0x150>
 1b8:	88 0f       	add	r24, r24
 1ba:	99 1f       	adc	r25, r25
 1bc:	4a 95       	dec	r20
 1be:	02 f4       	brpl	.+0      	; 0x1c0 <_ZN12CameraAL422B7captureEv+0x158>
 1c0:	28 2b       	or	r18, r24
 1c2:	28 b9       	out	0x08, r18	; 8
 1c4:	00 c0       	rjmp	.+0      	; 0x1c6 <_ZN12CameraAL422B7captureEv+0x15e>
 1c6:	25 b1       	in	r18, 0x05	; 5
 1c8:	48 50       	subi	r20, 0x08	; 8
 1ca:	50 40       	sbci	r21, 0x00	; 0
 1cc:	81 e0       	ldi	r24, 0x01	; 1
 1ce:	90 e0       	ldi	r25, 0x00	; 0
 1d0:	00 c0       	rjmp	.+0      	; 0x1d2 <_ZN12CameraAL422B7captureEv+0x16a>
 1d2:	88 0f       	add	r24, r24
 1d4:	99 1f       	adc	r25, r25
 1d6:	4a 95       	dec	r20
 1d8:	02 f4       	brpl	.+0      	; 0x1da <_ZN12CameraAL422B7captureEv+0x172>
 1da:	28 2b       	or	r18, r24
 1dc:	25 b9       	out	0x05, r18	; 5
 1de:	81 e0       	ldi	r24, 0x01	; 1
 1e0:	df 91       	pop	r29
 1e2:	cf 91       	pop	r28
 1e4:	1f 91       	pop	r17
 1e6:	0f 91       	pop	r16
 1e8:	08 95       	ret

000001ea <_ZN12CameraAL422B7readRowEP12OutputStream>:
 1ea:	af 92       	push	r10
 1ec:	bf 92       	push	r11
 1ee:	cf 92       	push	r12
 1f0:	df 92       	push	r13
 1f2:	ef 92       	push	r14
 1f4:	ff 92       	push	r15
 1f6:	0f 93       	push	r16
 1f8:	1f 93       	push	r17
 1fa:	cf 93       	push	r28
 1fc:	df 93       	push	r29
 1fe:	7c 01       	movw	r14, r24
 200:	5b 01       	movw	r10, r22
 202:	c0 e0       	ldi	r28, 0x00	; 0
 204:	d0 e0       	ldi	r29, 0x00	; 0
 206:	81 e0       	ldi	r24, 0x01	; 1
 208:	c8 2e       	mov	r12, r24
 20a:	d1 2c       	mov	r13, r1
 20c:	00 c0       	rjmp	.+0      	; 0x20e <_ZN12CameraAL422B7readRowEP12OutputStream+0x24>
 20e:	d7 01       	movw	r26, r14
 210:	16 96       	adiw	r26, 0x06	; 6
 212:	3c 91       	ld	r19, X
 214:	38 30       	cpi	r19, 0x08	; 8
 216:	00 f4       	brcc	.+0      	; 0x218 <_ZN12CameraAL422B7readRowEP12OutputStream+0x2e>
 218:	2b b1       	in	r18, 0x0b	; 11
 21a:	c6 01       	movw	r24, r12
 21c:	00 c0       	rjmp	.+0      	; 0x21e <_ZN12CameraAL422B7readRowEP12OutputStream+0x34>
 21e:	88 0f       	add	r24, r24
 220:	99 1f       	adc	r25, r25
 222:	3a 95       	dec	r19
 224:	02 f4       	brpl	.+0      	; 0x226 <_ZN12CameraAL422B7readRowEP12OutputStream+0x3c>
 226:	28 2b       	or	r18, r24
 228:	2b b9       	out	0x0b, r18	; 11
 22a:	00 c0       	rjmp	.+0      	; 0x22c <_ZN12CameraAL422B7readRowEP12OutputStream+0x42>
 22c:	83 2f       	mov	r24, r19
 22e:	90 e0       	ldi	r25, 0x00	; 0
 230:	3e 30       	cpi	r19, 0x0E	; 14
 232:	00 f0       	brcs	.+0      	; 0x234 <_ZN12CameraAL422B7readRowEP12OutputStream+0x4a>
 234:	28 b1       	in	r18, 0x08	; 8
 236:	0e 97       	sbiw	r24, 0x0e	; 14
 238:	f6 01       	movw	r30, r12
 23a:	00 c0       	rjmp	.+0      	; 0x23c <_ZN12CameraAL422B7readRowEP12OutputStream+0x52>
 23c:	ee 0f       	add	r30, r30
 23e:	ff 1f       	adc	r31, r31
 240:	8a 95       	dec	r24
 242:	02 f4       	brpl	.+0      	; 0x244 <_ZN12CameraAL422B7readRowEP12OutputStream+0x5a>
 244:	2e 2b       	or	r18, r30
 246:	28 b9       	out	0x08, r18	; 8
 248:	00 c0       	rjmp	.+0      	; 0x24a <_ZN12CameraAL422B7readRowEP12OutputStream+0x60>
 24a:	25 b1       	in	r18, 0x05	; 5
 24c:	08 97       	sbiw	r24, 0x08	; 8
 24e:	a6 01       	movw	r20, r12
 250:	00 c0       	rjmp	.+0      	; 0x252 <_ZN12CameraAL422B7readRowEP12OutputStream+0x68>
 252:	44 0f       	add	r20, r20
 254:	55 1f       	adc	r21, r21
 256:	8a 95       	dec	r24
 258:	02 f4       	brpl	.+0      	; 0x25a <_ZN12CameraAL422B7readRowEP12OutputStream+0x70>
 25a:	24 2b       	or	r18, r20
 25c:	25 b9       	out	0x05, r18	; 5
 25e:	d5 01       	movw	r26, r10
 260:	ed 91       	ld	r30, X+
 262:	fc 91       	ld	r31, X
 264:	04 81       	ldd	r16, Z+4	; 0x04
 266:	15 81       	ldd	r17, Z+5	; 0x05
 268:	d7 01       	movw	r26, r14
 26a:	12 96       	adiw	r26, 0x02	; 2
 26c:	ed 91       	ld	r30, X+
 26e:	fc 91       	ld	r31, X
 270:	13 97       	sbiw	r26, 0x03	; 3
 272:	09 95       	icall
 274:	68 2f       	mov	r22, r24
 276:	c5 01       	movw	r24, r10
 278:	f8 01       	movw	r30, r16
 27a:	09 95       	icall
 27c:	f7 01       	movw	r30, r14
 27e:	36 81       	ldd	r19, Z+6	; 0x06
 280:	38 30       	cpi	r19, 0x08	; 8
 282:	00 f4       	brcc	.+0      	; 0x284 <_ZN12CameraAL422B7readRowEP12OutputStream+0x9a>
 284:	2b b1       	in	r18, 0x0b	; 11
 286:	c6 01       	movw	r24, r12
 288:	00 c0       	rjmp	.+0      	; 0x28a <_ZN12CameraAL422B7readRowEP12OutputStream+0xa0>
 28a:	88 0f       	add	r24, r24
 28c:	99 1f       	adc	r25, r25
 28e:	3a 95       	dec	r19
 290:	02 f4       	brpl	.+0      	; 0x292 <_ZN12CameraAL422B7readRowEP12OutputStream+0xa8>
 292:	80 95       	com	r24
 294:	82 23       	and	r24, r18
 296:	8b b9       	out	0x0b, r24	; 11
 298:	00 c0       	rjmp	.+0      	; 0x29a <_ZN12CameraAL422B7readRowEP12OutputStream+0xb0>
 29a:	83 2f       	mov	r24, r19
 29c:	90 e0       	ldi	r25, 0x00	; 0
 29e:	3e 30       	cpi	r19, 0x0E	; 14
 2a0:	00 f0       	brcs	.+0      	; 0x2a2 <_ZN12CameraAL422B7readRowEP12OutputStream+0xb8>
 2a2:	28 b1       	in	r18, 0x08	; 8
 2a4:	0e 97       	sbiw	r24, 0x0e	; 14
 2a6:	a6 01       	movw	r20, r12
 2a8:	00 c0       	rjmp	.+0      	; 0x2aa <_ZN12CameraAL422B7readRowEP12OutputStream+0xc0>
 2aa:	44 0f       	add	r20, r20
 2ac:	55 1f       	adc	r21, r21
 2ae:	8a 95       	dec	r24
 2b0:	02 f4       	brpl	.+0      	; 0x2b2 <_ZN12CameraAL422B7readRowEP12OutputStream+0xc8>
 2b2:	ca 01       	movw	r24, r20
 2b4:	80 95       	com	r24
 2b6:	82 23       	and	r24, r18
 2b8:	88 b9       	out	0x08, r24	; 8
 2ba:	00 c0       	rjmp	.+0      	; 0x2bc <_ZN12CameraAL422B7readRowEP12OutputStream+0xd2>
 2bc:	25 b1       	in	r18, 0x05	; 5
 2be:	08 97       	sbiw	r24, 0x08	; 8
 2c0:	d6 01       	movw	r26, r12
 2c2:	00 c0       	rjmp	.+0      	; 0x2c4 <_ZN12CameraAL422B7readRowEP12OutputStream+0xda>
 2c4:	aa 0f       	add	r26, r26
 2c6:	bb 1f       	adc	r27, r27
 2c8:	8a 95       	dec	r24
 2ca:	02 f4       	brpl	.+0      	; 0x2cc <_ZN12CameraAL422B7readRowEP12OutputStream+0xe2>
 2cc:	cd 01       	movw	r24, r26
 2ce:	80 95       	com	r24
 2d0:	82 23       	and	r24, r18
 2d2:	85 b9       	out	0x05, r24	; 5
 2d4:	21 96       	adiw	r28, 0x01	; 1
 2d6:	f7 01       	movw	r30, r14
 2d8:	81 85       	ldd	r24, Z+9	; 0x09
 2da:	92 85       	ldd	r25, Z+10	; 0x0a
 2dc:	c8 17       	cp	r28, r24
 2de:	d9 07       	cpc	r29, r25
 2e0:	04 f4       	brge	.+0      	; 0x2e2 <_ZN12CameraAL422B7readRowEP12OutputStream+0xf8>
 2e2:	00 c0       	rjmp	.+0      	; 0x2e4 <_ZN12CameraAL422B7readRowEP12OutputStream+0xfa>
 2e4:	ce 01       	movw	r24, r28
 2e6:	df 91       	pop	r29
 2e8:	cf 91       	pop	r28
 2ea:	1f 91       	pop	r17
 2ec:	0f 91       	pop	r16
 2ee:	ff 90       	pop	r15
 2f0:	ef 90       	pop	r14
 2f2:	df 90       	pop	r13
 2f4:	cf 90       	pop	r12
 2f6:	bf 90       	pop	r11
 2f8:	af 90       	pop	r10
 2fa:	08 95       	ret

000002fc <_ZN12CameraAL422B12readRegisterENS_8RegisterE>:
 2fc:	ff 92       	push	r15
 2fe:	0f 93       	push	r16
 300:	1f 93       	push	r17
 302:	8c 01       	movw	r16, r24
 304:	f6 2e       	mov	r15, r22
 306:	80 e0       	ldi	r24, 0x00	; 0
 308:	90 e0       	ldi	r25, 0x00	; 0
 30a:	f8 01       	movw	r30, r16
 30c:	60 85       	ldd	r22, Z+8	; 0x08
 30e:	0e 94 00 00 	call	0	; 0x0 <_ZN12CameraAL422BC2EPFhvEhhhh>
 312:	80 e0       	ldi	r24, 0x00	; 0
 314:	90 e0       	ldi	r25, 0x00	; 0
 316:	6f 2d       	mov	r22, r15
 318:	0e 94 00 00 	call	0	; 0x0 <_ZN12CameraAL422BC2EPFhvEhhhh>
 31c:	80 e0       	ldi	r24, 0x00	; 0
 31e:	90 e0       	ldi	r25, 0x00	; 0
 320:	60 e0       	ldi	r22, 0x00	; 0
 322:	0e 94 00 00 	call	0	; 0x0 <_ZN12CameraAL422BC2EPFhvEhhhh>
 326:	80 e0       	ldi	r24, 0x00	; 0
 328:	90 e0       	ldi	r25, 0x00	; 0
 32a:	f8 01       	movw	r30, r16
 32c:	60 85       	ldd	r22, Z+8	; 0x08
 32e:	41 e0       	ldi	r20, 0x01	; 1
 330:	0e 94 00 00 	call	0	; 0x0 <_ZN12CameraAL422BC2EPFhvEhhhh>
 334:	00 c0       	rjmp	.+0      	; 0x336 <_ZN12CameraAL422B12readRegisterENS_8RegisterE+0x3a>
 336:	6a e0       	ldi	r22, 0x0A	; 10
 338:	70 e0       	ldi	r23, 0x00	; 0
 33a:	80 e0       	ldi	r24, 0x00	; 0
 33c:	90 e0       	ldi	r25, 0x00	; 0
 33e:	0e 94 00 00 	call	0	; 0x0 <_ZN12CameraAL422BC2EPFhvEhhhh>
 342:	80 e0       	ldi	r24, 0x00	; 0
 344:	90 e0       	ldi	r25, 0x00	; 0
 346:	0e 94 00 00 	call	0	; 0x0 <_ZN12CameraAL422BC2EPFhvEhhhh>
 34a:	89 2b       	or	r24, r25
 34c:	01 f0       	breq	.+0      	; 0x34e <_ZN12CameraAL422B12readRegisterENS_8RegisterE+0x52>
 34e:	80 e0       	ldi	r24, 0x00	; 0
 350:	90 e0       	ldi	r25, 0x00	; 0
 352:	0e 94 00 00 	call	0	; 0x0 <_ZN12CameraAL422BC2EPFhvEhhhh>
 356:	1f 91       	pop	r17
 358:	0f 91       	pop	r16
 35a:	ff 90       	pop	r15
 35c:	08 95       	ret

0000035e <_ZN12CameraAL422B13writeRegisterENS_8RegisterEh>:
 35e:	ef 92       	push	r14
 360:	ff 92       	push	r15
 362:	0f 93       	push	r16
 364:	1f 93       	push	r17
 366:	fc 01       	movw	r30, r24
 368:	f6 2e       	mov	r15, r22
 36a:	e4 2e       	mov	r14, r20
 36c:	00 e0       	ldi	r16, 0x00	; 0
 36e:	10 e0       	ldi	r17, 0x00	; 0
 370:	c8 01       	movw	r24, r16
 372:	60 85       	ldd	r22, Z+8	; 0x08
 374:	0e 94 00 00 	call	0	; 0x0 <_ZN12CameraAL422BC2EPFhvEhhhh>
 378:	c8 01       	movw	r24, r16
 37a:	6f 2d       	mov	r22, r15
 37c:	0e 94 00 00 	call	0	; 0x0 <_ZN12CameraAL422BC2EPFhvEhhhh>
 380:	c8 01       	movw	r24, r16
 382:	6e 2d       	mov	r22, r14
 384:	0e 94 00 00 	call	0	; 0x0 <_ZN12CameraAL422BC2EPFhvEhhhh>
 388:	c8 01       	movw	r24, r16
 38a:	0e 94 00 00 	call	0	; 0x0 <_ZN12CameraAL422BC2EPFhvEhhhh>
 38e:	1f 91       	pop	r17
 390:	0f 91       	pop	r16
 392:	ff 90       	pop	r15
 394:	ef 90       	pop	r14
 396:	08 95       	ret

00000398 <_ZN12CameraAL422B21configureRegisterBitsENS_8RegisterENS_4MaskEh>:
 398:	df 92       	push	r13
 39a:	ef 92       	push	r14
 39c:	ff 92       	push	r15
 39e:	0f 93       	push	r16
 3a0:	1f 93       	push	r17
 3a2:	7c 01       	movw	r14, r24
 3a4:	d6 2e       	mov	r13, r22
 3a6:	04 2f       	mov	r16, r20
 3a8:	12 2f       	mov	r17, r18
 3aa:	0e 94 00 00 	call	0	; 0x0 <_ZN12CameraAL422BC2EPFhvEhhhh>
 3ae:	40 2f       	mov	r20, r16
 3b0:	40 95       	com	r20
 3b2:	48 23       	and	r20, r24
 3b4:	10 23       	and	r17, r16
 3b6:	41 2b       	or	r20, r17
 3b8:	c7 01       	movw	r24, r14
 3ba:	6d 2d       	mov	r22, r13
 3bc:	0e 94 00 00 	call	0	; 0x0 <_ZN12CameraAL422BC2EPFhvEhhhh>
 3c0:	1f 91       	pop	r17
 3c2:	0f 91       	pop	r16
 3c4:	ff 90       	pop	r15
 3c6:	ef 90       	pop	r14
 3c8:	df 90       	pop	r13
 3ca:	08 95       	ret

000003cc <_ZN12CameraAL422B12setRGBOutputENS_9RGBOutputE>:
 3cc:	26 2f       	mov	r18, r22
 3ce:	60 e4       	ldi	r22, 0x40	; 64
 3d0:	40 e3       	ldi	r20, 0x30	; 48
 3d2:	0e 94 00 00 	call	0	; 0x0 <_ZN12CameraAL422BC2EPFhvEhhhh>
 3d6:	08 95       	ret

000003d8 <_ZN12CameraAL422B19setOutputResolutionENS_16OutputResolutionE>:
 3d8:	1f 93       	push	r17
 3da:	cf 93       	push	r28
 3dc:	df 93       	push	r29
 3de:	ec 01       	movw	r28, r24
 3e0:	16 2f       	mov	r17, r22
 3e2:	62 e1       	ldi	r22, 0x12	; 18
 3e4:	48 e3       	ldi	r20, 0x38	; 56
 3e6:	21 2f       	mov	r18, r17
 3e8:	0e 94 00 00 	call	0	; 0x0 <_ZN12CameraAL422BC2EPFhvEhhhh>
 3ec:	18 30       	cpi	r17, 0x08	; 8
 3ee:	01 f0       	breq	.+0      	; 0x3f0 <_ZN12CameraAL422B19setOutputResolutionENS_16OutputResolutionE+0x18>
 3f0:	19 30       	cpi	r17, 0x09	; 9
 3f2:	00 f4       	brcc	.+0      	; 0x3f4 <_ZN12CameraAL422B19setOutputResolutionENS_16OutputResolutionE+0x1c>
 3f4:	11 23       	and	r17, r17
 3f6:	01 f0       	breq	.+0      	; 0x3f8 <_ZN12CameraAL422B19setOutputResolutionENS_16OutputResolutionE+0x20>
 3f8:	00 c0       	rjmp	.+0      	; 0x3fa <_ZN12CameraAL422B19setOutputResolutionENS_16OutputResolutionE+0x22>
 3fa:	10 31       	cpi	r17, 0x10	; 16
 3fc:	01 f0       	breq	.+0      	; 0x3fe <_ZN12CameraAL422B19setOutputResolutionENS_16OutputResolutionE+0x26>
 3fe:	10 32       	cpi	r17, 0x20	; 32
 400:	01 f4       	brne	.+0      	; 0x402 <_ZN12CameraAL422B19setOutputResolutionENS_16OutputResolutionE+0x2a>
 402:	00 c0       	rjmp	.+0      	; 0x404 <_ZN12CameraAL422B19setOutputResolutionENS_16OutputResolutionE+0x2c>
 404:	80 e8       	ldi	r24, 0x80	; 128
 406:	92 e0       	ldi	r25, 0x02	; 2
 408:	9a 87       	std	Y+10, r25	; 0x0a
 40a:	89 87       	std	Y+9, r24	; 0x09
 40c:	80 ee       	ldi	r24, 0xE0	; 224
 40e:	91 e0       	ldi	r25, 0x01	; 1
 410:	00 c0       	rjmp	.+0      	; 0x412 <_ZN12CameraAL422B19setOutputResolutionENS_16OutputResolutionE+0x3a>
 412:	80 e4       	ldi	r24, 0x40	; 64
 414:	91 e0       	ldi	r25, 0x01	; 1
 416:	9a 87       	std	Y+10, r25	; 0x0a
 418:	89 87       	std	Y+9, r24	; 0x09
 41a:	80 ef       	ldi	r24, 0xF0	; 240
 41c:	90 e0       	ldi	r25, 0x00	; 0
 41e:	00 c0       	rjmp	.+0      	; 0x420 <_ZN12CameraAL422B19setOutputResolutionENS_16OutputResolutionE+0x48>
 420:	80 e6       	ldi	r24, 0x60	; 96
 422:	91 e0       	ldi	r25, 0x01	; 1
 424:	9a 87       	std	Y+10, r25	; 0x0a
 426:	89 87       	std	Y+9, r24	; 0x09
 428:	80 e2       	ldi	r24, 0x20	; 32
 42a:	91 e0       	ldi	r25, 0x01	; 1
 42c:	00 c0       	rjmp	.+0      	; 0x42e <_ZN12CameraAL422B19setOutputResolutionENS_16OutputResolutionE+0x56>
 42e:	80 eb       	ldi	r24, 0xB0	; 176
 430:	90 e0       	ldi	r25, 0x00	; 0
 432:	9a 87       	std	Y+10, r25	; 0x0a
 434:	89 87       	std	Y+9, r24	; 0x09
 436:	80 e9       	ldi	r24, 0x90	; 144
 438:	90 e0       	ldi	r25, 0x00	; 0
 43a:	9c 87       	std	Y+12, r25	; 0x0c
 43c:	8b 87       	std	Y+11, r24	; 0x0b
 43e:	df 91       	pop	r29
 440:	cf 91       	pop	r28
 442:	1f 91       	pop	r17
 444:	08 95       	ret

00000446 <_ZN12CameraAL422B15setOutputFormatENS_12OutputFormatE>:
 446:	26 2f       	mov	r18, r22
 448:	62 e1       	ldi	r22, 0x12	; 18
 44a:	45 e0       	ldi	r20, 0x05	; 5
 44c:	0e 94 00 00 	call	0	; 0x0 <_ZN12CameraAL422BC2EPFhvEhhhh>
 450:	08 95       	ret

00000452 <_ZN12CameraAL422B9readFrameEP12OutputStream>:
 452:	cf 92       	push	r12
 454:	df 92       	push	r13
 456:	ef 92       	push	r14
 458:	ff 92       	push	r15
 45a:	0f 93       	push	r16
 45c:	1f 93       	push	r17
 45e:	cf 93       	push	r28
 460:	df 93       	push	r29
 462:	7c 01       	movw	r14, r24
 464:	6b 01       	movw	r12, r22
 466:	fc 01       	movw	r30, r24
 468:	37 81       	ldd	r19, Z+7	; 0x07
 46a:	38 30       	cpi	r19, 0x08	; 8
 46c:	00 f4       	brcc	.+0      	; 0x46e <_ZN12CameraAL422B9readFrameEP12OutputStream+0x1c>
 46e:	2b b1       	in	r18, 0x0b	; 11
 470:	81 e0       	ldi	r24, 0x01	; 1
 472:	90 e0       	ldi	r25, 0x00	; 0
 474:	00 c0       	rjmp	.+0      	; 0x476 <_ZN12CameraAL422B9readFrameEP12OutputStream+0x24>
 476:	88 0f       	add	r24, r24
 478:	99 1f       	adc	r25, r25
 47a:	3a 95       	dec	r19
 47c:	02 f4       	brpl	.+0      	; 0x47e <_ZN12CameraAL422B9readFrameEP12OutputStream+0x2c>
 47e:	80 95       	com	r24
 480:	82 23       	and	r24, r18
 482:	8b b9       	out	0x0b, r24	; 11
 484:	00 c0       	rjmp	.+0      	; 0x486 <_ZN12CameraAL422B9readFrameEP12OutputStream+0x34>
 486:	43 2f       	mov	r20, r19
 488:	50 e0       	ldi	r21, 0x00	; 0
 48a:	3e 30       	cpi	r19, 0x0E	; 14
 48c:	00 f0       	brcs	.+0      	; 0x48e <_ZN12CameraAL422B9readFrameEP12OutputStream+0x3c>
 48e:	28 b1       	in	r18, 0x08	; 8
 490:	4e 50       	subi	r20, 0x0E	; 14
 492:	50 40       	sbci	r21, 0x00	; 0
 494:	81 e0       	ldi	r24, 0x01	; 1
 496:	90 e0       	ldi	r25, 0x00	; 0
 498:	00 c0       	rjmp	.+0      	; 0x49a <_ZN12CameraAL422B9readFrameEP12OutputStream+0x48>
 49a:	88 0f       	add	r24, r24
 49c:	99 1f       	adc	r25, r25
 49e:	4a 95       	dec	r20
 4a0:	02 f4       	brpl	.+0      	; 0x4a2 <_ZN12CameraAL422B9readFrameEP12OutputStream+0x50>
 4a2:	80 95       	com	r24
 4a4:	82 23       	and	r24, r18
 4a6:	88 b9       	out	0x08, r24	; 8
 4a8:	00 c0       	rjmp	.+0      	; 0x4aa <_ZN12CameraAL422B9readFrameEP12OutputStream+0x58>
 4aa:	25 b1       	in	r18, 0x05	; 5
 4ac:	48 50       	subi	r20, 0x08	; 8
 4ae:	50 40       	sbci	r21, 0x00	; 0
 4b0:	81 e0       	ldi	r24, 0x01	; 1
 4b2:	90 e0       	ldi	r25, 0x00	; 0
 4b4:	00 c0       	rjmp	.+0      	; 0x4b6 <_ZN12CameraAL422B9readFrameEP12OutputStream+0x64>
 4b6:	88 0f       	add	r24, r24
 4b8:	99 1f       	adc	r25, r25
 4ba:	4a 95       	dec	r20
 4bc:	02 f4       	brpl	.+0      	; 0x4be <_ZN12CameraAL422B9readFrameEP12OutputStream+0x6c>
 4be:	80 95       	com	r24
 4c0:	82 23       	and	r24, r18
 4c2:	85 b9       	out	0x05, r24	; 5
 4c4:	84 e6       	ldi	r24, 0x64	; 100
 4c6:	90 e0       	ldi	r25, 0x00	; 0
 4c8:	0e 94 00 00 	call	0	; 0x0 <_ZN12CameraAL422BC2EPFhvEhhhh>
 4cc:	f7 01       	movw	r30, r14
 4ce:	37 81       	ldd	r19, Z+7	; 0x07
 4d0:	38 30       	cpi	r19, 0x08	; 8
 4d2:	00 f4       	brcc	.+0      	; 0x4d4 <_ZN12CameraAL422B9readFrameEP12OutputStream+0x82>
 4d4:	2b b1       	in	r18, 0x0b	; 11
 4d6:	81 e0       	ldi	r24, 0x01	; 1
 4d8:	90 e0       	ldi	r25, 0x00	; 0
 4da:	00 c0       	rjmp	.+0      	; 0x4dc <_ZN12CameraAL422B9readFrameEP12OutputStream+0x8a>
 4dc:	88 0f       	add	r24, r24
 4de:	99 1f       	adc	r25, r25
 4e0:	3a 95       	dec	r19
 4e2:	02 f4       	brpl	.+0      	; 0x4e4 <_ZN12CameraAL422B9readFrameEP12OutputStream+0x92>
 4e4:	28 2b       	or	r18, r24
 4e6:	2b b9       	out	0x0b, r18	; 11
 4e8:	00 c0       	rjmp	.+0      	; 0x4ea <_ZN12CameraAL422B9readFrameEP12OutputStream+0x98>
 4ea:	43 2f       	mov	r20, r19
 4ec:	50 e0       	ldi	r21, 0x00	; 0
 4ee:	3e 30       	cpi	r19, 0x0E	; 14
 4f0:	00 f0       	brcs	.+0      	; 0x4f2 <_ZN12CameraAL422B9readFrameEP12OutputStream+0xa0>
 4f2:	28 b1       	in	r18, 0x08	; 8
 4f4:	4e 50       	subi	r20, 0x0E	; 14
 4f6:	50 40       	sbci	r21, 0x00	; 0
 4f8:	81 e0       	ldi	r24, 0x01	; 1
 4fa:	90 e0       	ldi	r25, 0x00	; 0
 4fc:	00 c0       	rjmp	.+0      	; 0x4fe <_ZN12CameraAL422B9readFrameEP12OutputStream+0xac>
 4fe:	88 0f       	add	r24, r24
 500:	99 1f       	adc	r25, r25
 502:	4a 95       	dec	r20
 504:	02 f4       	brpl	.+0      	; 0x506 <_ZN12CameraAL422B9readFrameEP12OutputStream+0xb4>
 506:	28 2b       	or	r18, r24
 508:	28 b9       	out	0x08, r18	; 8
 50a:	00 c0       	rjmp	.+0      	; 0x50c <_ZN12CameraAL422B9readFrameEP12OutputStream+0xba>
 50c:	25 b1       	in	r18, 0x05	; 5
 50e:	48 50       	subi	r20, 0x08	; 8
 510:	50 40       	sbci	r21, 0x00	; 0
 512:	81 e0       	ldi	r24, 0x01	; 1
 514:	90 e0       	ldi	r25, 0x00	; 0
 516:	00 c0       	rjmp	.+0      	; 0x518 <_ZN12CameraAL422B9readFrameEP12OutputStream+0xc6>
 518:	88 0f       	add	r24, r24
 51a:	99 1f       	adc	r25, r25
 51c:	4a 95       	dec	r20
 51e:	02 f4       	brpl	.+0      	; 0x520 <_ZN12CameraAL422B9readFrameEP12OutputStream+0xce>
 520:	28 2b       	or	r18, r24
 522:	25 b9       	out	0x05, r18	; 5
 524:	00 e0       	ldi	r16, 0x00	; 0
 526:	10 e0       	ldi	r17, 0x00	; 0
 528:	c0 e0       	ldi	r28, 0x00	; 0
 52a:	d0 e0       	ldi	r29, 0x00	; 0
 52c:	00 c0       	rjmp	.+0      	; 0x52e <_ZN12CameraAL422B9readFrameEP12OutputStream+0xdc>
 52e:	c7 01       	movw	r24, r14
 530:	b6 01       	movw	r22, r12
 532:	0e 94 00 00 	call	0	; 0x0 <_ZN12CameraAL422BC2EPFhvEhhhh>
 536:	c8 0f       	add	r28, r24
 538:	d9 1f       	adc	r29, r25
 53a:	0f 5f       	subi	r16, 0xFF	; 255
 53c:	1f 4f       	sbci	r17, 0xFF	; 255
 53e:	f7 01       	movw	r30, r14
 540:	83 85       	ldd	r24, Z+11	; 0x0b
 542:	94 85       	ldd	r25, Z+12	; 0x0c
 544:	08 17       	cp	r16, r24
 546:	19 07       	cpc	r17, r25
 548:	04 f0       	brlt	.+0      	; 0x54a <_ZN12CameraAL422B9readFrameEP12OutputStream+0xf8>
 54a:	ce 01       	movw	r24, r28
 54c:	df 91       	pop	r29
 54e:	cf 91       	pop	r28
 550:	1f 91       	pop	r17
 552:	0f 91       	pop	r16
 554:	ff 90       	pop	r15
 556:	ef 90       	pop	r14
 558:	df 90       	pop	r13
 55a:	cf 90       	pop	r12
 55c:	08 95       	ret

0000055e <_ZN12CameraAL422B5beginEv>:
 55e:	0f 93       	push	r16
 560:	1f 93       	push	r17
 562:	8c 01       	movw	r16, r24
 564:	80 e0       	ldi	r24, 0x00	; 0
 566:	90 e0       	ldi	r25, 0x00	; 0
 568:	0e 94 00 00 	call	0	; 0x0 <_ZN12CameraAL422BC2EPFhvEhhhh>
 56c:	f8 01       	movw	r30, r16
 56e:	84 81       	ldd	r24, Z+4	; 0x04
 570:	60 e0       	ldi	r22, 0x00	; 0
 572:	0e 94 00 00 	call	0	; 0x0 <_ZN12CameraAL422BC2EPFhvEhhhh>
 576:	f8 01       	movw	r30, r16
 578:	85 81       	ldd	r24, Z+5	; 0x05
 57a:	61 e0       	ldi	r22, 0x01	; 1
 57c:	0e 94 00 00 	call	0	; 0x0 <_ZN12CameraAL422BC2EPFhvEhhhh>
 580:	f8 01       	movw	r30, r16
 582:	86 81       	ldd	r24, Z+6	; 0x06
 584:	61 e0       	ldi	r22, 0x01	; 1
 586:	0e 94 00 00 	call	0	; 0x0 <_ZN12CameraAL422BC2EPFhvEhhhh>
 58a:	f8 01       	movw	r30, r16
 58c:	87 81       	ldd	r24, Z+7	; 0x07
 58e:	61 e0       	ldi	r22, 0x01	; 1
 590:	0e 94 00 00 	call	0	; 0x0 <_ZN12CameraAL422BC2EPFhvEhhhh>
 594:	c8 01       	movw	r24, r16
 596:	62 e1       	ldi	r22, 0x12	; 18
 598:	40 e8       	ldi	r20, 0x80	; 128
 59a:	2f ef       	ldi	r18, 0xFF	; 255
 59c:	0e 94 00 00 	call	0	; 0x0 <_ZN12CameraAL422BC2EPFhvEhhhh>
 5a0:	f8 01       	movw	r30, r16
 5a2:	35 81       	ldd	r19, Z+5	; 0x05
 5a4:	38 30       	cpi	r19, 0x08	; 8
 5a6:	00 f4       	brcc	.+0      	; 0x5a8 <_ZN12CameraAL422B5beginEv+0x4a>
 5a8:	2b b1       	in	r18, 0x0b	; 11
 5aa:	81 e0       	ldi	r24, 0x01	; 1
 5ac:	90 e0       	ldi	r25, 0x00	; 0
 5ae:	00 c0       	rjmp	.+0      	; 0x5b0 <_ZN12CameraAL422B5beginEv+0x52>
 5b0:	88 0f       	add	r24, r24
 5b2:	99 1f       	adc	r25, r25
 5b4:	3a 95       	dec	r19
 5b6:	02 f4       	brpl	.+0      	; 0x5b8 <_ZN12CameraAL422B5beginEv+0x5a>
 5b8:	28 2b       	or	r18, r24
 5ba:	2b b9       	out	0x0b, r18	; 11
 5bc:	00 c0       	rjmp	.+0      	; 0x5be <_ZN12CameraAL422B5beginEv+0x60>
 5be:	43 2f       	mov	r20, r19
 5c0:	50 e0       	ldi	r21, 0x00	; 0
 5c2:	3e 30       	cpi	r19, 0x0E	; 14
 5c4:	00 f0       	brcs	.+0      	; 0x5c6 <_ZN12CameraAL422B5beginEv+0x68>
 5c6:	28 b1       	in	r18, 0x08	; 8
 5c8:	4e 50       	subi	r20, 0x0E	; 14
 5ca:	50 40       	sbci	r21, 0x00	; 0
 5cc:	81 e0       	ldi	r24, 0x01	; 1
 5ce:	90 e0       	ldi	r25, 0x00	; 0
 5d0:	00 c0       	rjmp	.+0      	; 0x5d2 <_ZN12CameraAL422B5beginEv+0x74>
 5d2:	88 0f       	add	r24, r24
 5d4:	99 1f       	adc	r25, r25
 5d6:	4a 95       	dec	r20
 5d8:	02 f4       	brpl	.+0      	; 0x5da <_ZN12CameraAL422B5beginEv+0x7c>
 5da:	28 2b       	or	r18, r24
 5dc:	28 b9       	out	0x08, r18	; 8
 5de:	00 c0       	rjmp	.+0      	; 0x5e0 <_ZN12CameraAL422B5beginEv+0x82>
 5e0:	25 b1       	in	r18, 0x05	; 5
 5e2:	48 50       	subi	r20, 0x08	; 8
 5e4:	50 40       	sbci	r21, 0x00	; 0
 5e6:	81 e0       	ldi	r24, 0x01	; 1
 5e8:	90 e0       	ldi	r25, 0x00	; 0
 5ea:	00 c0       	rjmp	.+0      	; 0x5ec <_ZN12CameraAL422B5beginEv+0x8e>
 5ec:	88 0f       	add	r24, r24
 5ee:	99 1f       	adc	r25, r25
 5f0:	4a 95       	dec	r20
 5f2:	02 f4       	brpl	.+0      	; 0x5f4 <_ZN12CameraAL422B5beginEv+0x96>
 5f4:	28 2b       	or	r18, r24
 5f6:	25 b9       	out	0x05, r18	; 5
 5f8:	84 e6       	ldi	r24, 0x64	; 100
 5fa:	90 e0       	ldi	r25, 0x00	; 0
 5fc:	0e 94 00 00 	call	0	; 0x0 <_ZN12CameraAL422BC2EPFhvEhhhh>
 600:	1f 91       	pop	r17
 602:	0f 91       	pop	r16
 604:	08 95       	ret

Camera.o:     file format elf32-avr

Sections:
Idx Name          Size      VMA       LMA       File off  Algn
  0 .text         00000000  00000000  00000000  00000034  2**0
                  CONTENTS, ALLOC, LOAD, READONLY, CODE
  1 .data         00000000  00000000  00000000  00000034  2**0
                  CONTENTS, ALLOC, LOAD, DATA
  2 .bss          00000000  00000000  00000000  00000034  2**0
                  ALLOC

specs.o:     file format elf32-avr

Sections:
Idx Name          Size      VMA       LMA       File off  Algn
  0 .text         00000000  00000000  00000000  00000034  2**0
                  CONTENTS, ALLOC, LOAD, READONLY, CODE
  1 .data         00000000  00000000  00000000  00000034  2**0
                  CONTENTS, ALLOC, LOAD, DATA
  2 .bss          00000000  00000000  00000000  00000034  2**0
                  ALLOC
