In archive libArduinoCamera.a:

CameraVC0706.o:     file format elf32-avr

Sections:
Idx Name          Size      VMA       LMA       File off  Algn
  0 .text         00000af2  00000000  00000000  00000034  2**0
                  CONTENTS, ALLOC, LOAD, RELOC, READONLY, CODE
  1 .data         00000125  00000000  00000000  00000b26  2**0
                  CONTENTS, ALLOC, LOAD, DATA
  2 .bss          00000000  00000000  00000000  00000c4b  2**0
                  ALLOC
Disassembly of section .text:

00000000 <_ZN12CameraVC0706C2EP14SoftwareSerial>:
   0:	fc 01       	movw	r30, r24
   2:	77 8b       	std	Z+23, r23	; 0x17
   4:	66 8b       	std	Z+22, r22	; 0x16
   6:	10 8a       	std	Z+16, r1	; 0x10
   8:	17 86       	std	Z+15, r1	; 0x0f
   a:	11 8a       	std	Z+17, r1	; 0x11
   c:	13 8a       	std	Z+19, r1	; 0x13
   e:	12 8a       	std	Z+18, r1	; 0x12
  10:	08 95       	ret

00000012 <_ZN12CameraVC0706C1EP14SoftwareSerial>:
  12:	fc 01       	movw	r30, r24
  14:	77 8b       	std	Z+23, r23	; 0x17
  16:	66 8b       	std	Z+22, r22	; 0x16
  18:	10 8a       	std	Z+16, r1	; 0x10
  1a:	17 86       	std	Z+15, r1	; 0x0f
  1c:	11 8a       	std	Z+17, r1	; 0x11
  1e:	13 8a       	std	Z+19, r1	; 0x13
  20:	12 8a       	std	Z+18, r1	; 0x12
  22:	08 95       	ret

00000024 <_ZN12CameraVC070614verifyResponseEh>:
  24:	fc 01       	movw	r30, r24
  26:	80 81       	ld	r24, Z
  28:	86 37       	cpi	r24, 0x76	; 118
  2a:	01 f4       	brne	.+0      	; 0x2c <_ZN12CameraVC070614verifyResponseEh+0x8>
  2c:	91 81       	ldd	r25, Z+1	; 0x01
  2e:	81 89       	ldd	r24, Z+17	; 0x11
  30:	98 17       	cp	r25, r24
  32:	01 f4       	brne	.+0      	; 0x34 <_ZN12CameraVC070614verifyResponseEh+0x10>
  34:	82 81       	ldd	r24, Z+2	; 0x02
  36:	86 17       	cp	r24, r22
  38:	01 f4       	brne	.+0      	; 0x3a <_ZN12CameraVC070614verifyResponseEh+0x16>
  3a:	20 e0       	ldi	r18, 0x00	; 0
  3c:	83 81       	ldd	r24, Z+3	; 0x03
  3e:	88 23       	and	r24, r24
  40:	01 f4       	brne	.+0      	; 0x42 <_ZN12CameraVC070614verifyResponseEh+0x1e>
  42:	21 e0       	ldi	r18, 0x01	; 1
  44:	00 c0       	rjmp	.+0      	; 0x46 <_ZN12CameraVC070614verifyResponseEh+0x22>
  46:	20 e0       	ldi	r18, 0x00	; 0
  48:	82 2f       	mov	r24, r18
  4a:	08 95       	ret

0000004c <_ZN12CameraVC07069printBuffEPhj>:
  4c:	ef 92       	push	r14
  4e:	ff 92       	push	r15
  50:	0f 93       	push	r16
  52:	1f 93       	push	r17
  54:	cf 93       	push	r28
  56:	df 93       	push	r29
  58:	7b 01       	movw	r14, r22
  5a:	8a 01       	movw	r16, r20
  5c:	80 e0       	ldi	r24, 0x00	; 0
  5e:	90 e0       	ldi	r25, 0x00	; 0
  60:	60 e0       	ldi	r22, 0x00	; 0
  62:	70 e0       	ldi	r23, 0x00	; 0
  64:	0e 94 00 00 	call	0	; 0x0 <_ZN12CameraVC0706C2EP14SoftwareSerial>
  68:	c0 e0       	ldi	r28, 0x00	; 0
  6a:	d0 e0       	ldi	r29, 0x00	; 0
  6c:	00 c0       	rjmp	.+0      	; 0x6e <_ZN12CameraVC07069printBuffEPhj+0x22>
  6e:	80 e0       	ldi	r24, 0x00	; 0
  70:	90 e0       	ldi	r25, 0x00	; 0
  72:	be 01       	movw	r22, r28
  74:	4a e0       	ldi	r20, 0x0A	; 10
  76:	50 e0       	ldi	r21, 0x00	; 0
  78:	0e 94 00 00 	call	0	; 0x0 <_ZN12CameraVC0706C2EP14SoftwareSerial>
  7c:	80 e0       	ldi	r24, 0x00	; 0
  7e:	90 e0       	ldi	r25, 0x00	; 0
  80:	60 e0       	ldi	r22, 0x00	; 0
  82:	70 e0       	ldi	r23, 0x00	; 0
  84:	0e 94 00 00 	call	0	; 0x0 <_ZN12CameraVC0706C2EP14SoftwareSerial>
  88:	f7 01       	movw	r30, r14
  8a:	ec 0f       	add	r30, r28
  8c:	fd 1f       	adc	r31, r29
  8e:	80 e0       	ldi	r24, 0x00	; 0
  90:	90 e0       	ldi	r25, 0x00	; 0
  92:	60 81       	ld	r22, Z
  94:	4a e0       	ldi	r20, 0x0A	; 10
  96:	50 e0       	ldi	r21, 0x00	; 0
  98:	0e 94 00 00 	call	0	; 0x0 <_ZN12CameraVC0706C2EP14SoftwareSerial>
  9c:	21 96       	adiw	r28, 0x01	; 1
  9e:	c0 17       	cp	r28, r16
  a0:	d1 07       	cpc	r29, r17
  a2:	00 f0       	brcs	.+0      	; 0xa4 <_ZN12CameraVC07069printBuffEPhj+0x58>
  a4:	df 91       	pop	r29
  a6:	cf 91       	pop	r28
  a8:	1f 91       	pop	r17
  aa:	0f 91       	pop	r16
  ac:	ff 90       	pop	r15
  ae:	ef 90       	pop	r14
  b0:	08 95       	ret

000000b2 <_ZN12CameraVC07064readEPhj>:
  b2:	af 92       	push	r10
  b4:	bf 92       	push	r11
  b6:	cf 92       	push	r12
  b8:	df 92       	push	r13
  ba:	ef 92       	push	r14
  bc:	ff 92       	push	r15
  be:	0f 93       	push	r16
  c0:	1f 93       	push	r17
  c2:	cf 93       	push	r28
  c4:	df 93       	push	r29
  c6:	6c 01       	movw	r12, r24
  c8:	5b 01       	movw	r10, r22
  ca:	7a 01       	movw	r14, r20
  cc:	8a 01       	movw	r16, r20
  ce:	c0 e0       	ldi	r28, 0x00	; 0
  d0:	d0 e0       	ldi	r29, 0x00	; 0
  d2:	01 50       	subi	r16, 0x01	; 1
  d4:	10 40       	sbci	r17, 0x00	; 0
  d6:	ec 16       	cp	r14, r28
  d8:	fd 06       	cpc	r15, r29
  da:	01 f4       	brne	.+0      	; 0xdc <_ZN12CameraVC07064readEPhj+0x2a>
  dc:	00 c0       	rjmp	.+0      	; 0xde <_ZN12CameraVC07064readEPhj+0x2c>
  de:	d6 01       	movw	r26, r12
  e0:	56 96       	adiw	r26, 0x16	; 22
  e2:	ed 91       	ld	r30, X+
  e4:	fc 91       	ld	r31, X
  e6:	57 97       	sbiw	r26, 0x17	; 23
  e8:	a0 81       	ld	r26, Z
  ea:	b1 81       	ldd	r27, Z+1	; 0x01
  ec:	14 96       	adiw	r26, 0x04	; 4
  ee:	2d 91       	ld	r18, X+
  f0:	3c 91       	ld	r19, X
  f2:	15 97       	sbiw	r26, 0x05	; 5
  f4:	cf 01       	movw	r24, r30
  f6:	f9 01       	movw	r30, r18
  f8:	09 95       	icall
  fa:	89 2b       	or	r24, r25
  fc:	01 f4       	brne	.+0      	; 0xfe <_ZN12CameraVC07064readEPhj+0x4c>
  fe:	00 c0       	rjmp	.+0      	; 0x100 <_ZN12CameraVC07064readEPhj+0x4e>
 100:	f6 01       	movw	r30, r12
 102:	a6 89       	ldd	r26, Z+22	; 0x16
 104:	b7 89       	ldd	r27, Z+23	; 0x17
 106:	ed 91       	ld	r30, X+
 108:	fc 91       	ld	r31, X
 10a:	11 97       	sbiw	r26, 0x01	; 1
 10c:	06 80       	ldd	r0, Z+6	; 0x06
 10e:	f7 81       	ldd	r31, Z+7	; 0x07
 110:	e0 2d       	mov	r30, r0
 112:	cd 01       	movw	r24, r26
 114:	09 95       	icall
 116:	f5 01       	movw	r30, r10
 118:	ec 0f       	add	r30, r28
 11a:	fd 1f       	adc	r31, r29
 11c:	80 83       	st	Z, r24
 11e:	21 96       	adiw	r28, 0x01	; 1
 120:	00 c0       	rjmp	.+0      	; 0x122 <_ZN12CameraVC07064readEPhj+0x70>
 122:	80 e0       	ldi	r24, 0x00	; 0
 124:	90 e0       	ldi	r25, 0x00	; 0
 126:	60 e0       	ldi	r22, 0x00	; 0
 128:	70 e0       	ldi	r23, 0x00	; 0
 12a:	0e 94 00 00 	call	0	; 0x0 <_ZN12CameraVC0706C2EP14SoftwareSerial>
 12e:	00 c0       	rjmp	.+0      	; 0x130 <_ZN12CameraVC07064readEPhj+0x7e>
 130:	c0 17       	cp	r28, r16
 132:	d1 07       	cpc	r29, r17
 134:	01 f0       	breq	.+0      	; 0x136 <_ZN12CameraVC07064readEPhj+0x84>
 136:	80 e0       	ldi	r24, 0x00	; 0
 138:	90 e0       	ldi	r25, 0x00	; 0
 13a:	60 e0       	ldi	r22, 0x00	; 0
 13c:	70 e0       	ldi	r23, 0x00	; 0
 13e:	0e 94 00 00 	call	0	; 0x0 <_ZN12CameraVC0706C2EP14SoftwareSerial>
 142:	80 e0       	ldi	r24, 0x00	; 0
 144:	90 e0       	ldi	r25, 0x00	; 0
 146:	be 01       	movw	r22, r28
 148:	4a e0       	ldi	r20, 0x0A	; 10
 14a:	50 e0       	ldi	r21, 0x00	; 0
 14c:	0e 94 00 00 	call	0	; 0x0 <_ZN12CameraVC0706C2EP14SoftwareSerial>
 150:	80 e0       	ldi	r24, 0x00	; 0
 152:	90 e0       	ldi	r25, 0x00	; 0
 154:	60 e0       	ldi	r22, 0x00	; 0
 156:	70 e0       	ldi	r23, 0x00	; 0
 158:	0e 94 00 00 	call	0	; 0x0 <_ZN12CameraVC0706C2EP14SoftwareSerial>
 15c:	80 e0       	ldi	r24, 0x00	; 0
 15e:	90 e0       	ldi	r25, 0x00	; 0
 160:	b8 01       	movw	r22, r16
 162:	00 c0       	rjmp	.+0      	; 0x164 <_ZN12CameraVC07064readEPhj+0xb2>
 164:	80 e0       	ldi	r24, 0x00	; 0
 166:	90 e0       	ldi	r25, 0x00	; 0
 168:	60 e0       	ldi	r22, 0x00	; 0
 16a:	70 e0       	ldi	r23, 0x00	; 0
 16c:	0e 94 00 00 	call	0	; 0x0 <_ZN12CameraVC0706C2EP14SoftwareSerial>
 170:	80 e0       	ldi	r24, 0x00	; 0
 172:	90 e0       	ldi	r25, 0x00	; 0
 174:	be 01       	movw	r22, r28
 176:	4a e0       	ldi	r20, 0x0A	; 10
 178:	50 e0       	ldi	r21, 0x00	; 0
 17a:	0e 94 00 00 	call	0	; 0x0 <_ZN12CameraVC0706C2EP14SoftwareSerial>
 17e:	80 e0       	ldi	r24, 0x00	; 0
 180:	90 e0       	ldi	r25, 0x00	; 0
 182:	60 e0       	ldi	r22, 0x00	; 0
 184:	70 e0       	ldi	r23, 0x00	; 0
 186:	0e 94 00 00 	call	0	; 0x0 <_ZN12CameraVC0706C2EP14SoftwareSerial>
 18a:	80 e0       	ldi	r24, 0x00	; 0
 18c:	90 e0       	ldi	r25, 0x00	; 0
 18e:	be 01       	movw	r22, r28
 190:	4a e0       	ldi	r20, 0x0A	; 10
 192:	50 e0       	ldi	r21, 0x00	; 0
 194:	0e 94 00 00 	call	0	; 0x0 <_ZN12CameraVC0706C2EP14SoftwareSerial>
 198:	ce 01       	movw	r24, r28
 19a:	df 91       	pop	r29
 19c:	cf 91       	pop	r28
 19e:	1f 91       	pop	r17
 1a0:	0f 91       	pop	r16
 1a2:	ff 90       	pop	r15
 1a4:	ef 90       	pop	r14
 1a6:	df 90       	pop	r13
 1a8:	cf 90       	pop	r12
 1aa:	bf 90       	pop	r11
 1ac:	af 90       	pop	r10
 1ae:	08 95       	ret
 1b0:	20 97       	sbiw	r28, 0x00	; 0
 1b2:	01 f0       	breq	.+0      	; 0x1b4 <_ZN12CameraVC07064readEPhj+0x102>
 1b4:	00 c0       	rjmp	.+0      	; 0x1b6 <_ZN12CameraVC07064readEPhj+0x104>
 1b6:	00 c0       	rjmp	.+0      	; 0x1b8 <_ZN12CameraVC070612readResponseEj>

000001b8 <_ZN12CameraVC070612readResponseEj>:
 1b8:	0f 93       	push	r16
 1ba:	1f 93       	push	r17
 1bc:	8c 01       	movw	r16, r24
 1be:	ab 01       	movw	r20, r22
 1c0:	b8 01       	movw	r22, r16
 1c2:	0e 94 00 00 	call	0	; 0x0 <_ZN12CameraVC0706C2EP14SoftwareSerial>
 1c6:	ac 01       	movw	r20, r24
 1c8:	f8 01       	movw	r30, r16
 1ca:	90 8b       	std	Z+16, r25	; 0x10
 1cc:	87 87       	std	Z+15, r24	; 0x0f
 1ce:	c8 01       	movw	r24, r16
 1d0:	b8 01       	movw	r22, r16
 1d2:	0e 94 00 00 	call	0	; 0x0 <_ZN12CameraVC0706C2EP14SoftwareSerial>
 1d6:	f8 01       	movw	r30, r16
 1d8:	87 85       	ldd	r24, Z+15	; 0x0f
 1da:	90 89       	ldd	r25, Z+16	; 0x10
 1dc:	1f 91       	pop	r17
 1de:	0f 91       	pop	r16
 1e0:	08 95       	ret

000001e2 <_ZN12CameraVC07065writeEPhj>:
 1e2:	cf 92       	push	r12
 1e4:	df 92       	push	r13
 1e6:	ef 92       	push	r14
 1e8:	ff 92       	push	r15
 1ea:	0f 93       	push	r16
 1ec:	1f 93       	push	r17
 1ee:	cf 93       	push	r28
 1f0:	df 93       	push	r29
 1f2:	8c 01       	movw	r16, r24
 1f4:	7b 01       	movw	r14, r22
 1f6:	6a 01       	movw	r12, r20
 1f8:	80 e0       	ldi	r24, 0x00	; 0
 1fa:	90 e0       	ldi	r25, 0x00	; 0
 1fc:	60 e0       	ldi	r22, 0x00	; 0
 1fe:	70 e0       	ldi	r23, 0x00	; 0
 200:	0e 94 00 00 	call	0	; 0x0 <_ZN12CameraVC0706C2EP14SoftwareSerial>
 204:	80 e0       	ldi	r24, 0x00	; 0
 206:	90 e0       	ldi	r25, 0x00	; 0
 208:	b6 01       	movw	r22, r12
 20a:	4a e0       	ldi	r20, 0x0A	; 10
 20c:	50 e0       	ldi	r21, 0x00	; 0
 20e:	0e 94 00 00 	call	0	; 0x0 <_ZN12CameraVC0706C2EP14SoftwareSerial>
 212:	80 e0       	ldi	r24, 0x00	; 0
 214:	90 e0       	ldi	r25, 0x00	; 0
 216:	60 e0       	ldi	r22, 0x00	; 0
 218:	70 e0       	ldi	r23, 0x00	; 0
 21a:	0e 94 00 00 	call	0	; 0x0 <_ZN12CameraVC0706C2EP14SoftwareSerial>
 21e:	d8 01       	movw	r26, r16
 220:	56 96       	adiw	r26, 0x16	; 22
 222:	ed 91       	ld	r30, X+
 224:	fc 91       	ld	r31, X
 226:	57 97       	sbiw	r26, 0x17	; 23
 228:	a0 81       	ld	r26, Z
 22a:	b1 81       	ldd	r27, Z+1	; 0x01
 22c:	12 96       	adiw	r26, 0x02	; 2
 22e:	2d 91       	ld	r18, X+
 230:	3c 91       	ld	r19, X
 232:	13 97       	sbiw	r26, 0x03	; 3
 234:	cf 01       	movw	r24, r30
 236:	b7 01       	movw	r22, r14
 238:	a6 01       	movw	r20, r12
 23a:	f9 01       	movw	r30, r18
 23c:	09 95       	icall
 23e:	ec 01       	movw	r28, r24
 240:	8c 15       	cp	r24, r12
 242:	9d 05       	cpc	r25, r13
 244:	01 f0       	breq	.+0      	; 0x246 <_ZN12CameraVC07065writeEPhj+0x64>
 246:	80 e0       	ldi	r24, 0x00	; 0
 248:	90 e0       	ldi	r25, 0x00	; 0
 24a:	60 e0       	ldi	r22, 0x00	; 0
 24c:	70 e0       	ldi	r23, 0x00	; 0
 24e:	0e 94 00 00 	call	0	; 0x0 <_ZN12CameraVC0706C2EP14SoftwareSerial>
 252:	80 e0       	ldi	r24, 0x00	; 0
 254:	90 e0       	ldi	r25, 0x00	; 0
 256:	be 01       	movw	r22, r28
 258:	4a e0       	ldi	r20, 0x0A	; 10
 25a:	50 e0       	ldi	r21, 0x00	; 0
 25c:	0e 94 00 00 	call	0	; 0x0 <_ZN12CameraVC0706C2EP14SoftwareSerial>
 260:	80 e0       	ldi	r24, 0x00	; 0
 262:	90 e0       	ldi	r25, 0x00	; 0
 264:	60 e0       	ldi	r22, 0x00	; 0
 266:	70 e0       	ldi	r23, 0x00	; 0
 268:	0e 94 00 00 	call	0	; 0x0 <_ZN12CameraVC0706C2EP14SoftwareSerial>
 26c:	80 e0       	ldi	r24, 0x00	; 0
 26e:	90 e0       	ldi	r25, 0x00	; 0
 270:	b6 01       	movw	r22, r12
 272:	4a e0       	ldi	r20, 0x0A	; 10
 274:	50 e0       	ldi	r21, 0x00	; 0
 276:	0e 94 00 00 	call	0	; 0x0 <_ZN12CameraVC0706C2EP14SoftwareSerial>
 27a:	ce 01       	movw	r24, r28
 27c:	df 91       	pop	r29
 27e:	cf 91       	pop	r28
 280:	1f 91       	pop	r17
 282:	0f 91       	pop	r16
 284:	ff 90       	pop	r15
 286:	ef 90       	pop	r14
 288:	df 90       	pop	r13
 28a:	cf 90       	pop	r12
 28c:	08 95       	ret

0000028e <_ZN12CameraVC070611sendCommandEhPhj>:
 28e:	af 92       	push	r10
 290:	bf 92       	push	r11
 292:	cf 92       	push	r12
 294:	df 92       	push	r13
 296:	ef 92       	push	r14
 298:	ff 92       	push	r15
 29a:	0f 93       	push	r16
 29c:	1f 93       	push	r17
 29e:	df 93       	push	r29
 2a0:	cf 93       	push	r28
 2a2:	cd b7       	in	r28, 0x3d	; 61
 2a4:	de b7       	in	r29, 0x3e	; 62
 2a6:	7c 01       	movw	r14, r24
 2a8:	ad b6       	in	r10, 0x3d	; 61
 2aa:	be b6       	in	r11, 0x3e	; 62
 2ac:	84 e0       	ldi	r24, 0x04	; 4
 2ae:	c8 2e       	mov	r12, r24
 2b0:	d1 2c       	mov	r13, r1
 2b2:	c2 0e       	add	r12, r18
 2b4:	d3 1e       	adc	r13, r19
 2b6:	8d b7       	in	r24, 0x3d	; 61
 2b8:	9e b7       	in	r25, 0x3e	; 62
 2ba:	8c 19       	sub	r24, r12
 2bc:	9d 09       	sbc	r25, r13
 2be:	0f b6       	in	r0, 0x3f	; 63
 2c0:	f8 94       	cli
 2c2:	9e bf       	out	0x3e, r25	; 62
 2c4:	0f be       	out	0x3f, r0	; 63
 2c6:	8d bf       	out	0x3d, r24	; 61
 2c8:	0d b7       	in	r16, 0x3d	; 61
 2ca:	1e b7       	in	r17, 0x3e	; 62
 2cc:	0f 5f       	subi	r16, 0xFF	; 255
 2ce:	1f 4f       	sbci	r17, 0xFF	; 255
 2d0:	86 e5       	ldi	r24, 0x56	; 86
 2d2:	ed b7       	in	r30, 0x3d	; 61
 2d4:	fe b7       	in	r31, 0x3e	; 62
 2d6:	81 83       	std	Z+1, r24	; 0x01
 2d8:	f7 01       	movw	r30, r14
 2da:	81 89       	ldd	r24, Z+17	; 0x11
 2dc:	f8 01       	movw	r30, r16
 2de:	81 83       	std	Z+1, r24	; 0x01
 2e0:	62 83       	std	Z+2, r22	; 0x02
 2e2:	23 83       	std	Z+3, r18	; 0x03
 2e4:	6d b7       	in	r22, 0x3d	; 61
 2e6:	7e b7       	in	r23, 0x3e	; 62
 2e8:	6b 5f       	subi	r22, 0xFB	; 251
 2ea:	7f 4f       	sbci	r23, 0xFF	; 255
 2ec:	cb 01       	movw	r24, r22
 2ee:	ba 01       	movw	r22, r20
 2f0:	a9 01       	movw	r20, r18
 2f2:	0e 94 00 00 	call	0	; 0x0 <_ZN12CameraVC0706C2EP14SoftwareSerial>
 2f6:	c7 01       	movw	r24, r14
 2f8:	b8 01       	movw	r22, r16
 2fa:	a6 01       	movw	r20, r12
 2fc:	0e 94 00 00 	call	0	; 0x0 <_ZN12CameraVC0706C2EP14SoftwareSerial>
 300:	c7 01       	movw	r24, r14
 302:	b8 01       	movw	r22, r16
 304:	a6 01       	movw	r20, r12
 306:	0e 94 00 00 	call	0	; 0x0 <_ZN12CameraVC0706C2EP14SoftwareSerial>
 30a:	8c 01       	movw	r16, r24
 30c:	80 e0       	ldi	r24, 0x00	; 0
 30e:	90 e0       	ldi	r25, 0x00	; 0
 310:	b8 01       	movw	r22, r16
 312:	4a e0       	ldi	r20, 0x0A	; 10
 314:	50 e0       	ldi	r21, 0x00	; 0
 316:	0e 94 00 00 	call	0	; 0x0 <_ZN12CameraVC0706C2EP14SoftwareSerial>
 31a:	80 e0       	ldi	r24, 0x00	; 0
 31c:	90 e0       	ldi	r25, 0x00	; 0
 31e:	60 e0       	ldi	r22, 0x00	; 0
 320:	70 e0       	ldi	r23, 0x00	; 0
 322:	0e 94 00 00 	call	0	; 0x0 <_ZN12CameraVC0706C2EP14SoftwareSerial>
 326:	0c 15       	cp	r16, r12
 328:	1d 05       	cpc	r17, r13
 32a:	01 f0       	breq	.+0      	; 0x32c <_ZN12CameraVC070611sendCommandEhPhj+0x9e>
 32c:	80 e0       	ldi	r24, 0x00	; 0
 32e:	90 e0       	ldi	r25, 0x00	; 0
 330:	60 e0       	ldi	r22, 0x00	; 0
 332:	70 e0       	ldi	r23, 0x00	; 0
 334:	0e 94 00 00 	call	0	; 0x0 <_ZN12CameraVC0706C2EP14SoftwareSerial>
 338:	80 e0       	ldi	r24, 0x00	; 0
 33a:	90 e0       	ldi	r25, 0x00	; 0
 33c:	b6 01       	movw	r22, r12
 33e:	4a e0       	ldi	r20, 0x0A	; 10
 340:	50 e0       	ldi	r21, 0x00	; 0
 342:	0e 94 00 00 	call	0	; 0x0 <_ZN12CameraVC0706C2EP14SoftwareSerial>
 346:	00 e0       	ldi	r16, 0x00	; 0
 348:	10 e0       	ldi	r17, 0x00	; 0
 34a:	c8 01       	movw	r24, r16
 34c:	0f b6       	in	r0, 0x3f	; 63
 34e:	f8 94       	cli
 350:	be be       	out	0x3e, r11	; 62
 352:	0f be       	out	0x3f, r0	; 63
 354:	ad be       	out	0x3d, r10	; 61
 356:	cf 91       	pop	r28
 358:	df 91       	pop	r29
 35a:	1f 91       	pop	r17
 35c:	0f 91       	pop	r16
 35e:	ff 90       	pop	r15
 360:	ef 90       	pop	r14
 362:	df 90       	pop	r13
 364:	cf 90       	pop	r12
 366:	bf 90       	pop	r11
 368:	af 90       	pop	r10
 36a:	08 95       	ret

0000036c <_ZN12CameraVC070614executeCommandEhPhhj>:
 36c:	ff 92       	push	r15
 36e:	0f 93       	push	r16
 370:	1f 93       	push	r17
 372:	cf 93       	push	r28
 374:	df 93       	push	r29
 376:	ec 01       	movw	r28, r24
 378:	f6 2e       	mov	r15, r22
 37a:	30 e0       	ldi	r19, 0x00	; 0
 37c:	0e 94 00 00 	call	0	; 0x0 <_ZN12CameraVC0706C2EP14SoftwareSerial>
 380:	89 2b       	or	r24, r25
 382:	01 f0       	breq	.+0      	; 0x384 <_ZN12CameraVC070614executeCommandEhPhhj+0x18>
 384:	62 e3       	ldi	r22, 0x32	; 50
 386:	70 e0       	ldi	r23, 0x00	; 0
 388:	80 e0       	ldi	r24, 0x00	; 0
 38a:	90 e0       	ldi	r25, 0x00	; 0
 38c:	0e 94 00 00 	call	0	; 0x0 <_ZN12CameraVC0706C2EP14SoftwareSerial>
 390:	ce 01       	movw	r24, r28
 392:	b8 01       	movw	r22, r16
 394:	0e 94 00 00 	call	0	; 0x0 <_ZN12CameraVC0706C2EP14SoftwareSerial>
 398:	89 2b       	or	r24, r25
 39a:	01 f0       	breq	.+0      	; 0x39c <_ZN12CameraVC070614executeCommandEhPhhj+0x30>
 39c:	88 81       	ld	r24, Y
 39e:	86 37       	cpi	r24, 0x76	; 118
 3a0:	01 f4       	brne	.+0      	; 0x3a2 <_ZN12CameraVC070614executeCommandEhPhhj+0x36>
 3a2:	99 81       	ldd	r25, Y+1	; 0x01
 3a4:	89 89       	ldd	r24, Y+17	; 0x11
 3a6:	98 17       	cp	r25, r24
 3a8:	01 f4       	brne	.+0      	; 0x3aa <_ZN12CameraVC070614executeCommandEhPhhj+0x3e>
 3aa:	8a 81       	ldd	r24, Y+2	; 0x02
 3ac:	8f 15       	cp	r24, r15
 3ae:	01 f4       	brne	.+0      	; 0x3b0 <_ZN12CameraVC070614executeCommandEhPhhj+0x44>
 3b0:	20 e0       	ldi	r18, 0x00	; 0
 3b2:	8b 81       	ldd	r24, Y+3	; 0x03
 3b4:	88 23       	and	r24, r24
 3b6:	01 f4       	brne	.+0      	; 0x3b8 <_ZN12CameraVC070614executeCommandEhPhhj+0x4c>
 3b8:	21 e0       	ldi	r18, 0x01	; 1
 3ba:	00 c0       	rjmp	.+0      	; 0x3bc <_ZN12CameraVC070614executeCommandEhPhhj+0x50>
 3bc:	20 e0       	ldi	r18, 0x00	; 0
 3be:	82 2f       	mov	r24, r18
 3c0:	df 91       	pop	r29
 3c2:	cf 91       	pop	r28
 3c4:	1f 91       	pop	r17
 3c6:	0f 91       	pop	r16
 3c8:	ff 90       	pop	r15
 3ca:	08 95       	ret

000003cc <_ZN12CameraVC070611setBoudRateEj>:
 3cc:	0f 93       	push	r16
 3ce:	1f 93       	push	r17
 3d0:	df 93       	push	r29
 3d2:	cf 93       	push	r28
 3d4:	00 d0       	rcall	.+0      	; 0x3d6 <_ZN12CameraVC070611setBoudRateEj+0xa>
 3d6:	0f 92       	push	r0
 3d8:	cd b7       	in	r28, 0x3d	; 61
 3da:	de b7       	in	r29, 0x3e	; 62
 3dc:	fc 01       	movw	r30, r24
 3de:	64 8b       	std	Z+20, r22	; 0x14
 3e0:	75 8b       	std	Z+21, r23	; 0x15
 3e2:	9e 01       	movw	r18, r28
 3e4:	2f 5f       	subi	r18, 0xFF	; 255
 3e6:	3f 4f       	sbci	r19, 0xFF	; 255
 3e8:	83 e0       	ldi	r24, 0x03	; 3
 3ea:	d9 01       	movw	r26, r18
 3ec:	1d 92       	st	X+, r1
 3ee:	8a 95       	dec	r24
 3f0:	01 f4       	brne	.+0      	; 0x3f2 <_ZN12CameraVC070611setBoudRateEj+0x26>
 3f2:	81 e0       	ldi	r24, 0x01	; 1
 3f4:	89 83       	std	Y+1, r24	; 0x01
 3f6:	7a 83       	std	Y+2, r23	; 0x02
 3f8:	6b 83       	std	Y+3, r22	; 0x03
 3fa:	cf 01       	movw	r24, r30
 3fc:	64 e2       	ldi	r22, 0x24	; 36
 3fe:	a9 01       	movw	r20, r18
 400:	23 e0       	ldi	r18, 0x03	; 3
 402:	05 e0       	ldi	r16, 0x05	; 5
 404:	10 e0       	ldi	r17, 0x00	; 0
 406:	0e 94 00 00 	call	0	; 0x0 <_ZN12CameraVC0706C2EP14SoftwareSerial>
 40a:	0f 90       	pop	r0
 40c:	0f 90       	pop	r0
 40e:	0f 90       	pop	r0
 410:	cf 91       	pop	r28
 412:	df 91       	pop	r29
 414:	1f 91       	pop	r17
 416:	0f 91       	pop	r16
 418:	08 95       	ret

0000041a <_ZN12CameraVC070611setTVOutputEh>:
 41a:	0f 93       	push	r16
 41c:	1f 93       	push	r17
 41e:	df 93       	push	r29
 420:	cf 93       	push	r28
 422:	0f 92       	push	r0
 424:	cd b7       	in	r28, 0x3d	; 61
 426:	de b7       	in	r29, 0x3e	; 62
 428:	61 70       	andi	r22, 0x01	; 1
 42a:	69 83       	std	Y+1, r22	; 0x01
 42c:	64 e4       	ldi	r22, 0x44	; 68
 42e:	ae 01       	movw	r20, r28
 430:	4f 5f       	subi	r20, 0xFF	; 255
 432:	5f 4f       	sbci	r21, 0xFF	; 255
 434:	21 e0       	ldi	r18, 0x01	; 1
 436:	05 e0       	ldi	r16, 0x05	; 5
 438:	10 e0       	ldi	r17, 0x00	; 0
 43a:	0e 94 00 00 	call	0	; 0x0 <_ZN12CameraVC0706C2EP14SoftwareSerial>
 43e:	0f 90       	pop	r0
 440:	cf 91       	pop	r28
 442:	df 91       	pop	r29
 444:	1f 91       	pop	r17
 446:	0f 91       	pop	r16
 448:	08 95       	ret

0000044a <_ZN12CameraVC070614getCompressionEv>:
 44a:	ef 92       	push	r14
 44c:	ff 92       	push	r15
 44e:	0f 93       	push	r16
 450:	1f 93       	push	r17
 452:	df 93       	push	r29
 454:	cf 93       	push	r28
 456:	00 d0       	rcall	.+0      	; 0x458 <_ZN12CameraVC070614getCompressionEv+0xe>
 458:	00 d0       	rcall	.+0      	; 0x45a <_ZN12CameraVC070614getCompressionEv+0x10>
 45a:	cd b7       	in	r28, 0x3d	; 61
 45c:	de b7       	in	r29, 0x3e	; 62
 45e:	7c 01       	movw	r14, r24
 460:	81 e0       	ldi	r24, 0x01	; 1
 462:	89 83       	std	Y+1, r24	; 0x01
 464:	8a 83       	std	Y+2, r24	; 0x02
 466:	82 e1       	ldi	r24, 0x12	; 18
 468:	8b 83       	std	Y+3, r24	; 0x03
 46a:	84 e0       	ldi	r24, 0x04	; 4
 46c:	8c 83       	std	Y+4, r24	; 0x04
 46e:	c7 01       	movw	r24, r14
 470:	60 e3       	ldi	r22, 0x30	; 48
 472:	ae 01       	movw	r20, r28
 474:	4f 5f       	subi	r20, 0xFF	; 255
 476:	5f 4f       	sbci	r21, 0xFF	; 255
 478:	24 e0       	ldi	r18, 0x04	; 4
 47a:	06 e0       	ldi	r16, 0x06	; 6
 47c:	10 e0       	ldi	r17, 0x00	; 0
 47e:	0e 94 00 00 	call	0	; 0x0 <_ZN12CameraVC0706C2EP14SoftwareSerial>
 482:	88 23       	and	r24, r24
 484:	01 f0       	breq	.+0      	; 0x486 <_ZN12CameraVC070614getCompressionEv+0x3c>
 486:	f7 01       	movw	r30, r14
 488:	85 81       	ldd	r24, Z+5	; 0x05
 48a:	0f 90       	pop	r0
 48c:	0f 90       	pop	r0
 48e:	0f 90       	pop	r0
 490:	0f 90       	pop	r0
 492:	cf 91       	pop	r28
 494:	df 91       	pop	r29
 496:	1f 91       	pop	r17
 498:	0f 91       	pop	r16
 49a:	ff 90       	pop	r15
 49c:	ef 90       	pop	r14
 49e:	08 95       	ret

000004a0 <_ZN12CameraVC070614setCompressionEh>:
 4a0:	0f 93       	push	r16
 4a2:	1f 93       	push	r17
 4a4:	df 93       	push	r29
 4a6:	cf 93       	push	r28
 4a8:	00 d0       	rcall	.+0      	; 0x4aa <_ZN12CameraVC070614setCompressionEh+0xa>
 4aa:	00 d0       	rcall	.+0      	; 0x4ac <_ZN12CameraVC070614setCompressionEh+0xc>
 4ac:	0f 92       	push	r0
 4ae:	cd b7       	in	r28, 0x3d	; 61
 4b0:	de b7       	in	r29, 0x3e	; 62
 4b2:	fe 01       	movw	r30, r28
 4b4:	31 96       	adiw	r30, 0x01	; 1
 4b6:	25 e0       	ldi	r18, 0x05	; 5
 4b8:	df 01       	movw	r26, r30
 4ba:	1d 92       	st	X+, r1
 4bc:	2a 95       	dec	r18
 4be:	01 f4       	brne	.+0      	; 0x4c0 <_ZN12CameraVC070614setCompressionEh+0x20>
 4c0:	21 e0       	ldi	r18, 0x01	; 1
 4c2:	29 83       	std	Y+1, r18	; 0x01
 4c4:	2a 83       	std	Y+2, r18	; 0x02
 4c6:	22 e1       	ldi	r18, 0x12	; 18
 4c8:	2b 83       	std	Y+3, r18	; 0x03
 4ca:	24 e0       	ldi	r18, 0x04	; 4
 4cc:	2c 83       	std	Y+4, r18	; 0x04
 4ce:	6d 83       	std	Y+5, r22	; 0x05
 4d0:	61 e3       	ldi	r22, 0x31	; 49
 4d2:	af 01       	movw	r20, r30
 4d4:	25 e0       	ldi	r18, 0x05	; 5
 4d6:	05 e0       	ldi	r16, 0x05	; 5
 4d8:	10 e0       	ldi	r17, 0x00	; 0
 4da:	0e 94 00 00 	call	0	; 0x0 <_ZN12CameraVC0706C2EP14SoftwareSerial>
 4de:	0f 90       	pop	r0
 4e0:	0f 90       	pop	r0
 4e2:	0f 90       	pop	r0
 4e4:	0f 90       	pop	r0
 4e6:	0f 90       	pop	r0
 4e8:	cf 91       	pop	r28
 4ea:	df 91       	pop	r29
 4ec:	1f 91       	pop	r17
 4ee:	0f 91       	pop	r16
 4f0:	08 95       	ret

000004f2 <_ZN12CameraVC070616setOsdCharactersEhhPhh>:
 4f2:	af 92       	push	r10
 4f4:	bf 92       	push	r11
 4f6:	cf 92       	push	r12
 4f8:	df 92       	push	r13
 4fa:	ef 92       	push	r14
 4fc:	ff 92       	push	r15
 4fe:	0f 93       	push	r16
 500:	1f 93       	push	r17
 502:	df 93       	push	r29
 504:	cf 93       	push	r28
 506:	cd b7       	in	r28, 0x3d	; 61
 508:	de b7       	in	r29, 0x3e	; 62
 50a:	6c 01       	movw	r12, r24
 50c:	54 2f       	mov	r21, r20
 50e:	e2 2f       	mov	r30, r18
 510:	73 2f       	mov	r23, r19
 512:	ad b6       	in	r10, 0x3d	; 61
 514:	be b6       	in	r11, 0x3e	; 62
 516:	40 2f       	mov	r20, r16
 518:	0f 30       	cpi	r16, 0x0F	; 15
 51a:	00 f0       	brcs	.+0      	; 0x51c <_ZN12CameraVC070616setOsdCharactersEhhPhh+0x2a>
 51c:	4e e0       	ldi	r20, 0x0E	; 14
 51e:	04 2f       	mov	r16, r20
 520:	10 e0       	ldi	r17, 0x00	; 0
 522:	0f 5f       	subi	r16, 0xFF	; 255
 524:	1f 4f       	sbci	r17, 0xFF	; 255
 526:	c8 01       	movw	r24, r16
 528:	01 96       	adiw	r24, 0x01	; 1
 52a:	2d b7       	in	r18, 0x3d	; 61
 52c:	3e b7       	in	r19, 0x3e	; 62
 52e:	28 1b       	sub	r18, r24
 530:	39 0b       	sbc	r19, r25
 532:	0f b6       	in	r0, 0x3f	; 63
 534:	f8 94       	cli
 536:	3e bf       	out	0x3e, r19	; 62
 538:	0f be       	out	0x3f, r0	; 63
 53a:	2d bf       	out	0x3d, r18	; 61
 53c:	ed b6       	in	r14, 0x3d	; 61
 53e:	fe b6       	in	r15, 0x3e	; 62
 540:	08 94       	sec
 542:	e1 1c       	adc	r14, r1
 544:	f1 1c       	adc	r15, r1
 546:	ad b7       	in	r26, 0x3d	; 61
 548:	be b7       	in	r27, 0x3e	; 62
 54a:	11 96       	adiw	r26, 0x01	; 1
 54c:	4c 93       	st	X, r20
 54e:	62 95       	swap	r22
 550:	66 0f       	add	r22, r22
 552:	66 0f       	add	r22, r22
 554:	60 74       	andi	r22, 0x40	; 64
 556:	5f 71       	andi	r21, 0x1F	; 31
 558:	65 2b       	or	r22, r21
 55a:	d7 01       	movw	r26, r14
 55c:	11 96       	adiw	r26, 0x01	; 1
 55e:	6c 93       	st	X, r22
 560:	2d 5f       	subi	r18, 0xFD	; 253
 562:	3f 4f       	sbci	r19, 0xFF	; 255
 564:	c9 01       	movw	r24, r18
 566:	6e 2f       	mov	r22, r30
 568:	50 e0       	ldi	r21, 0x00	; 0
 56a:	0e 94 00 00 	call	0	; 0x0 <_ZN12CameraVC0706C2EP14SoftwareSerial>
 56e:	0f 5f       	subi	r16, 0xFF	; 255
 570:	c6 01       	movw	r24, r12
 572:	65 e4       	ldi	r22, 0x45	; 69
 574:	a7 01       	movw	r20, r14
 576:	20 2f       	mov	r18, r16
 578:	05 e0       	ldi	r16, 0x05	; 5
 57a:	10 e0       	ldi	r17, 0x00	; 0
 57c:	0e 94 00 00 	call	0	; 0x0 <_ZN12CameraVC0706C2EP14SoftwareSerial>
 580:	0f b6       	in	r0, 0x3f	; 63
 582:	f8 94       	cli
 584:	be be       	out	0x3e, r11	; 62
 586:	0f be       	out	0x3f, r0	; 63
 588:	ad be       	out	0x3d, r10	; 61
 58a:	cf 91       	pop	r28
 58c:	df 91       	pop	r29
 58e:	1f 91       	pop	r17
 590:	0f 91       	pop	r16
 592:	ff 90       	pop	r15
 594:	ef 90       	pop	r14
 596:	df 90       	pop	r13
 598:	cf 90       	pop	r12
 59a:	bf 90       	pop	r11
 59c:	af 90       	pop	r10
 59e:	08 95       	ret

000005a0 <_ZN12CameraVC070610getVersionEv>:
 5a0:	cf 92       	push	r12
 5a2:	df 92       	push	r13
 5a4:	ef 92       	push	r14
 5a6:	ff 92       	push	r15
 5a8:	0f 93       	push	r16
 5aa:	1f 93       	push	r17
 5ac:	df 93       	push	r29
 5ae:	6c 01       	movw	r12, r24
 5b0:	61 e1       	ldi	r22, 0x11	; 17
 5b2:	4d b7       	in	r20, 0x3d	; 61
 5b4:	5e b7       	in	r21, 0x3e	; 62
 5b6:	4f 5f       	subi	r20, 0xFF	; 255
 5b8:	5f 4f       	sbci	r21, 0xFF	; 255
 5ba:	20 e0       	ldi	r18, 0x00	; 0
 5bc:	02 e1       	ldi	r16, 0x12	; 18
 5be:	10 e0       	ldi	r17, 0x00	; 0
 5c0:	0e 94 00 00 	call	0	; 0x0 <_ZN12CameraVC0706C2EP14SoftwareSerial>
 5c4:	88 23       	and	r24, r24
 5c6:	01 f4       	brne	.+0      	; 0x5c8 <_ZN12CameraVC070610getVersionEv+0x28>
 5c8:	e0 e0       	ldi	r30, 0x00	; 0
 5ca:	70 e0       	ldi	r23, 0x00	; 0
 5cc:	60 e0       	ldi	r22, 0x00	; 0
 5ce:	00 c0       	rjmp	.+0      	; 0x5d0 <_ZN12CameraVC070610getVersionEv+0x30>
 5d0:	20 e0       	ldi	r18, 0x00	; 0
 5d2:	30 e0       	ldi	r19, 0x00	; 0
 5d4:	f6 01       	movw	r30, r12
 5d6:	e2 0f       	add	r30, r18
 5d8:	f3 1f       	adc	r31, r19
 5da:	80 81       	ld	r24, Z
 5dc:	2f 5f       	subi	r18, 0xFF	; 255
 5de:	3f 4f       	sbci	r19, 0xFF	; 255
 5e0:	80 32       	cpi	r24, 0x20	; 32
 5e2:	01 f4       	brne	.+0      	; 0x5e4 <_ZN12CameraVC070610getVersionEv+0x44>
 5e4:	c2 0e       	add	r12, r18
 5e6:	d3 1e       	adc	r13, r19
 5e8:	f6 01       	movw	r30, r12
 5ea:	60 81       	ld	r22, Z
 5ec:	70 e0       	ldi	r23, 0x00	; 0
 5ee:	60 53       	subi	r22, 0x30	; 48
 5f0:	70 40       	sbci	r23, 0x00	; 0
 5f2:	88 27       	eor	r24, r24
 5f4:	77 fd       	sbrc	r23, 7
 5f6:	80 95       	com	r24
 5f8:	98 2f       	mov	r25, r24
 5fa:	0e 94 00 00 	call	0	; 0x0 <_ZN12CameraVC0706C2EP14SoftwareSerial>
 5fe:	20 e0       	ldi	r18, 0x00	; 0
 600:	30 e0       	ldi	r19, 0x00	; 0
 602:	40 e0       	ldi	r20, 0x00	; 0
 604:	50 e0       	ldi	r21, 0x00	; 0
 606:	0e 94 00 00 	call	0	; 0x0 <_ZN12CameraVC0706C2EP14SoftwareSerial>
 60a:	7b 01       	movw	r14, r22
 60c:	8c 01       	movw	r16, r24
 60e:	f6 01       	movw	r30, r12
 610:	62 81       	ldd	r22, Z+2	; 0x02
 612:	70 e0       	ldi	r23, 0x00	; 0
 614:	60 53       	subi	r22, 0x30	; 48
 616:	70 40       	sbci	r23, 0x00	; 0
 618:	88 27       	eor	r24, r24
 61a:	77 fd       	sbrc	r23, 7
 61c:	80 95       	com	r24
 61e:	98 2f       	mov	r25, r24
 620:	0e 94 00 00 	call	0	; 0x0 <_ZN12CameraVC0706C2EP14SoftwareSerial>
 624:	2d ec       	ldi	r18, 0xCD	; 205
 626:	3c ec       	ldi	r19, 0xCC	; 204
 628:	4c ec       	ldi	r20, 0xCC	; 204
 62a:	5d e3       	ldi	r21, 0x3D	; 61
 62c:	0e 94 00 00 	call	0	; 0x0 <_ZN12CameraVC0706C2EP14SoftwareSerial>
 630:	9b 01       	movw	r18, r22
 632:	ac 01       	movw	r20, r24
 634:	c8 01       	movw	r24, r16
 636:	b7 01       	movw	r22, r14
 638:	0e 94 00 00 	call	0	; 0x0 <_ZN12CameraVC0706C2EP14SoftwareSerial>
 63c:	7b 01       	movw	r14, r22
 63e:	8c 01       	movw	r16, r24
 640:	f6 01       	movw	r30, r12
 642:	63 81       	ldd	r22, Z+3	; 0x03
 644:	70 e0       	ldi	r23, 0x00	; 0
 646:	60 53       	subi	r22, 0x30	; 48
 648:	70 40       	sbci	r23, 0x00	; 0
 64a:	88 27       	eor	r24, r24
 64c:	77 fd       	sbrc	r23, 7
 64e:	80 95       	com	r24
 650:	98 2f       	mov	r25, r24
 652:	0e 94 00 00 	call	0	; 0x0 <_ZN12CameraVC0706C2EP14SoftwareSerial>
 656:	2a e0       	ldi	r18, 0x0A	; 10
 658:	37 ed       	ldi	r19, 0xD7	; 215
 65a:	43 e2       	ldi	r20, 0x23	; 35
 65c:	5c e3       	ldi	r21, 0x3C	; 60
 65e:	0e 94 00 00 	call	0	; 0x0 <_ZN12CameraVC0706C2EP14SoftwareSerial>
 662:	9b 01       	movw	r18, r22
 664:	ac 01       	movw	r20, r24
 666:	c8 01       	movw	r24, r16
 668:	b7 01       	movw	r22, r14
 66a:	0e 94 00 00 	call	0	; 0x0 <_ZN12CameraVC0706C2EP14SoftwareSerial>
 66e:	e6 2f       	mov	r30, r22
 670:	69 2f       	mov	r22, r25
 672:	2e 2f       	mov	r18, r30
 674:	37 2f       	mov	r19, r23
 676:	48 2f       	mov	r20, r24
 678:	56 2f       	mov	r21, r22
 67a:	b9 01       	movw	r22, r18
 67c:	ca 01       	movw	r24, r20
 67e:	df 91       	pop	r29
 680:	1f 91       	pop	r17
 682:	0f 91       	pop	r16
 684:	ff 90       	pop	r15
 686:	ef 90       	pop	r14
 688:	df 90       	pop	r13
 68a:	cf 90       	pop	r12
 68c:	08 95       	ret

0000068e <_ZN12CameraVC07065resetEv>:
 68e:	0f 93       	push	r16
 690:	1f 93       	push	r17
 692:	df 93       	push	r29
 694:	66 e2       	ldi	r22, 0x26	; 38
 696:	4d b7       	in	r20, 0x3d	; 61
 698:	5e b7       	in	r21, 0x3e	; 62
 69a:	4f 5f       	subi	r20, 0xFF	; 255
 69c:	5f 4f       	sbci	r21, 0xFF	; 255
 69e:	20 e0       	ldi	r18, 0x00	; 0
 6a0:	05 e0       	ldi	r16, 0x05	; 5
 6a2:	10 e0       	ldi	r17, 0x00	; 0
 6a4:	0e 94 00 00 	call	0	; 0x0 <_ZN12CameraVC0706C2EP14SoftwareSerial>
 6a8:	18 2f       	mov	r17, r24
 6aa:	88 23       	and	r24, r24
 6ac:	01 f0       	breq	.+0      	; 0x6ae <_ZN12CameraVC07065resetEv+0x20>
 6ae:	80 e0       	ldi	r24, 0x00	; 0
 6b0:	90 e0       	ldi	r25, 0x00	; 0
 6b2:	60 e0       	ldi	r22, 0x00	; 0
 6b4:	70 e0       	ldi	r23, 0x00	; 0
 6b6:	0e 94 00 00 	call	0	; 0x0 <_ZN12CameraVC0706C2EP14SoftwareSerial>
 6ba:	6a e0       	ldi	r22, 0x0A	; 10
 6bc:	70 e0       	ldi	r23, 0x00	; 0
 6be:	80 e0       	ldi	r24, 0x00	; 0
 6c0:	90 e0       	ldi	r25, 0x00	; 0
 6c2:	0e 94 00 00 	call	0	; 0x0 <_ZN12CameraVC0706C2EP14SoftwareSerial>
 6c6:	81 2f       	mov	r24, r17
 6c8:	df 91       	pop	r29
 6ca:	1f 91       	pop	r17
 6cc:	0f 91       	pop	r16
 6ce:	08 95       	ret

000006d0 <_ZN12CameraVC070625getMotionMonitoringStatusEv>:
 6d0:	0f 93       	push	r16
 6d2:	1f 93       	push	r17
 6d4:	cf 93       	push	r28
 6d6:	df 93       	push	r29
 6d8:	ec 01       	movw	r28, r24
 6da:	68 e3       	ldi	r22, 0x38	; 56
 6dc:	4d b7       	in	r20, 0x3d	; 61
 6de:	5e b7       	in	r21, 0x3e	; 62
 6e0:	4f 5f       	subi	r20, 0xFF	; 255
 6e2:	5f 4f       	sbci	r21, 0xFF	; 255
 6e4:	20 e0       	ldi	r18, 0x00	; 0
 6e6:	06 e0       	ldi	r16, 0x06	; 6
 6e8:	10 e0       	ldi	r17, 0x00	; 0
 6ea:	0e 94 00 00 	call	0	; 0x0 <_ZN12CameraVC0706C2EP14SoftwareSerial>
 6ee:	88 23       	and	r24, r24
 6f0:	01 f0       	breq	.+0      	; 0x6f2 <_ZN12CameraVC070625getMotionMonitoringStatusEv+0x22>
 6f2:	8d 81       	ldd	r24, Y+5	; 0x05
 6f4:	81 11       	cpse	r24, r1
 6f6:	81 e0       	ldi	r24, 0x01	; 1
 6f8:	df 91       	pop	r29
 6fa:	cf 91       	pop	r28
 6fc:	1f 91       	pop	r17
 6fe:	0f 91       	pop	r16
 700:	08 95       	ret

00000702 <_ZN12CameraVC070619setMotionMonitoringEb>:
 702:	0f 93       	push	r16
 704:	1f 93       	push	r17
 706:	df 93       	push	r29
 708:	cf 93       	push	r28
 70a:	0f 92       	push	r0
 70c:	cd b7       	in	r28, 0x3d	; 61
 70e:	de b7       	in	r29, 0x3e	; 62
 710:	69 83       	std	Y+1, r22	; 0x01
 712:	67 e3       	ldi	r22, 0x37	; 55
 714:	ae 01       	movw	r20, r28
 716:	4f 5f       	subi	r20, 0xFF	; 255
 718:	5f 4f       	sbci	r21, 0xFF	; 255
 71a:	21 e0       	ldi	r18, 0x01	; 1
 71c:	05 e0       	ldi	r16, 0x05	; 5
 71e:	10 e0       	ldi	r17, 0x00	; 0
 720:	0e 94 00 00 	call	0	; 0x0 <_ZN12CameraVC0706C2EP14SoftwareSerial>
 724:	0f 90       	pop	r0
 726:	cf 91       	pop	r28
 728:	df 91       	pop	r29
 72a:	1f 91       	pop	r17
 72c:	0f 91       	pop	r16
 72e:	08 95       	ret

00000730 <_ZN12CameraVC070619setOutputResolutionEh>:
 730:	0f 93       	push	r16
 732:	1f 93       	push	r17
 734:	df 93       	push	r29
 736:	cf 93       	push	r28
 738:	00 d0       	rcall	.+0      	; 0x73a <_ZN12CameraVC070619setOutputResolutionEh+0xa>
 73a:	00 d0       	rcall	.+0      	; 0x73c <_ZN12CameraVC070619setOutputResolutionEh+0xc>
 73c:	0f 92       	push	r0
 73e:	cd b7       	in	r28, 0x3d	; 61
 740:	de b7       	in	r29, 0x3e	; 62
 742:	fe 01       	movw	r30, r28
 744:	31 96       	adiw	r30, 0x01	; 1
 746:	25 e0       	ldi	r18, 0x05	; 5
 748:	df 01       	movw	r26, r30
 74a:	1d 92       	st	X+, r1
 74c:	2a 95       	dec	r18
 74e:	01 f4       	brne	.+0      	; 0x750 <_ZN12CameraVC070619setOutputResolutionEh+0x20>
 750:	24 e0       	ldi	r18, 0x04	; 4
 752:	29 83       	std	Y+1, r18	; 0x01
 754:	21 e0       	ldi	r18, 0x01	; 1
 756:	2a 83       	std	Y+2, r18	; 0x02
 758:	29 e1       	ldi	r18, 0x19	; 25
 75a:	2c 83       	std	Y+4, r18	; 0x04
 75c:	6d 83       	std	Y+5, r22	; 0x05
 75e:	61 e3       	ldi	r22, 0x31	; 49
 760:	af 01       	movw	r20, r30
 762:	25 e0       	ldi	r18, 0x05	; 5
 764:	05 e0       	ldi	r16, 0x05	; 5
 766:	10 e0       	ldi	r17, 0x00	; 0
 768:	0e 94 00 00 	call	0	; 0x0 <_ZN12CameraVC0706C2EP14SoftwareSerial>
 76c:	0f 90       	pop	r0
 76e:	0f 90       	pop	r0
 770:	0f 90       	pop	r0
 772:	0f 90       	pop	r0
 774:	0f 90       	pop	r0
 776:	cf 91       	pop	r28
 778:	df 91       	pop	r29
 77a:	1f 91       	pop	r17
 77c:	0f 91       	pop	r16
 77e:	08 95       	ret

00000780 <_ZN12CameraVC070621getColorControlStatusEv>:
 780:	0f 93       	push	r16
 782:	1f 93       	push	r17
 784:	cf 93       	push	r28
 786:	df 93       	push	r29
 788:	ec 01       	movw	r28, r24
 78a:	6d e3       	ldi	r22, 0x3D	; 61
 78c:	4d b7       	in	r20, 0x3d	; 61
 78e:	5e b7       	in	r21, 0x3e	; 62
 790:	4f 5f       	subi	r20, 0xFF	; 255
 792:	5f 4f       	sbci	r21, 0xFF	; 255
 794:	20 e0       	ldi	r18, 0x00	; 0
 796:	08 e0       	ldi	r16, 0x08	; 8
 798:	10 e0       	ldi	r17, 0x00	; 0
 79a:	0e 94 00 00 	call	0	; 0x0 <_ZN12CameraVC0706C2EP14SoftwareSerial>
 79e:	88 23       	and	r24, r24
 7a0:	01 f4       	brne	.+0      	; 0x7a2 <_ZN12CameraVC070621getColorControlStatusEv+0x22>
 7a2:	20 e0       	ldi	r18, 0x00	; 0
 7a4:	00 c0       	rjmp	.+0      	; 0x7a6 <_ZN12CameraVC070621getColorControlStatusEv+0x26>
 7a6:	2e 81       	ldd	r18, Y+6	; 0x06
 7a8:	22 0f       	add	r18, r18
 7aa:	22 0f       	add	r18, r18
 7ac:	24 70       	andi	r18, 0x04	; 4
 7ae:	8d 81       	ldd	r24, Y+5	; 0x05
 7b0:	81 70       	andi	r24, 0x01	; 1
 7b2:	28 2b       	or	r18, r24
 7b4:	82 2f       	mov	r24, r18
 7b6:	df 91       	pop	r29
 7b8:	cf 91       	pop	r28
 7ba:	1f 91       	pop	r17
 7bc:	0f 91       	pop	r16
 7be:	08 95       	ret

000007c0 <_ZN12CameraVC070615setColorControlEhh>:
 7c0:	0f 93       	push	r16
 7c2:	1f 93       	push	r17
 7c4:	df 93       	push	r29
 7c6:	cf 93       	push	r28
 7c8:	00 d0       	rcall	.+0      	; 0x7ca <_ZN12CameraVC070615setColorControlEhh+0xa>
 7ca:	cd b7       	in	r28, 0x3d	; 61
 7cc:	de b7       	in	r29, 0x3e	; 62
 7ce:	61 70       	andi	r22, 0x01	; 1
 7d0:	69 83       	std	Y+1, r22	; 0x01
 7d2:	41 70       	andi	r20, 0x01	; 1
 7d4:	4a 83       	std	Y+2, r20	; 0x02
 7d6:	6c e3       	ldi	r22, 0x3C	; 60
 7d8:	ae 01       	movw	r20, r28
 7da:	4f 5f       	subi	r20, 0xFF	; 255
 7dc:	5f 4f       	sbci	r21, 0xFF	; 255
 7de:	22 e0       	ldi	r18, 0x02	; 2
 7e0:	05 e0       	ldi	r16, 0x05	; 5
 7e2:	10 e0       	ldi	r17, 0x00	; 0
 7e4:	0e 94 00 00 	call	0	; 0x0 <_ZN12CameraVC0706C2EP14SoftwareSerial>
 7e8:	0f 90       	pop	r0
 7ea:	0f 90       	pop	r0
 7ec:	cf 91       	pop	r28
 7ee:	df 91       	pop	r29
 7f0:	1f 91       	pop	r17
 7f2:	0f 91       	pop	r16
 7f4:	08 95       	ret

000007f6 <_ZN12CameraVC070625getHorizontalMirrorStatusEv>:
 7f6:	0f 93       	push	r16
 7f8:	1f 93       	push	r17
 7fa:	cf 93       	push	r28
 7fc:	df 93       	push	r29
 7fe:	ec 01       	movw	r28, r24
 800:	6b e3       	ldi	r22, 0x3B	; 59
 802:	4d b7       	in	r20, 0x3d	; 61
 804:	5e b7       	in	r21, 0x3e	; 62
 806:	4f 5f       	subi	r20, 0xFF	; 255
 808:	5f 4f       	sbci	r21, 0xFF	; 255
 80a:	20 e0       	ldi	r18, 0x00	; 0
 80c:	07 e0       	ldi	r16, 0x07	; 7
 80e:	10 e0       	ldi	r17, 0x00	; 0
 810:	0e 94 00 00 	call	0	; 0x0 <_ZN12CameraVC0706C2EP14SoftwareSerial>
 814:	88 23       	and	r24, r24
 816:	01 f4       	brne	.+0      	; 0x818 <_ZN12CameraVC070625getHorizontalMirrorStatusEv+0x22>
 818:	20 e0       	ldi	r18, 0x00	; 0
 81a:	00 c0       	rjmp	.+0      	; 0x81c <_ZN12CameraVC070625getHorizontalMirrorStatusEv+0x26>
 81c:	2d 81       	ldd	r18, Y+5	; 0x05
 81e:	22 0f       	add	r18, r18
 820:	22 70       	andi	r18, 0x02	; 2
 822:	8e 81       	ldd	r24, Y+6	; 0x06
 824:	81 70       	andi	r24, 0x01	; 1
 826:	28 2b       	or	r18, r24
 828:	82 2f       	mov	r24, r18
 82a:	df 91       	pop	r29
 82c:	cf 91       	pop	r28
 82e:	1f 91       	pop	r17
 830:	0f 91       	pop	r16
 832:	08 95       	ret

00000834 <_ZN12CameraVC070619setHorizontalMirrorEhh>:
 834:	0f 93       	push	r16
 836:	1f 93       	push	r17
 838:	df 93       	push	r29
 83a:	cf 93       	push	r28
 83c:	00 d0       	rcall	.+0      	; 0x83e <_ZN12CameraVC070619setHorizontalMirrorEhh+0xa>
 83e:	cd b7       	in	r28, 0x3d	; 61
 840:	de b7       	in	r29, 0x3e	; 62
 842:	61 70       	andi	r22, 0x01	; 1
 844:	69 83       	std	Y+1, r22	; 0x01
 846:	41 70       	andi	r20, 0x01	; 1
 848:	4a 83       	std	Y+2, r20	; 0x02
 84a:	6a e3       	ldi	r22, 0x3A	; 58
 84c:	ae 01       	movw	r20, r28
 84e:	4f 5f       	subi	r20, 0xFF	; 255
 850:	5f 4f       	sbci	r21, 0xFF	; 255
 852:	22 e0       	ldi	r18, 0x02	; 2
 854:	05 e0       	ldi	r16, 0x05	; 5
 856:	10 e0       	ldi	r17, 0x00	; 0
 858:	0e 94 00 00 	call	0	; 0x0 <_ZN12CameraVC0706C2EP14SoftwareSerial>
 85c:	0f 90       	pop	r0
 85e:	0f 90       	pop	r0
 860:	cf 91       	pop	r28
 862:	df 91       	pop	r29
 864:	1f 91       	pop	r17
 866:	0f 91       	pop	r16
 868:	08 95       	ret

0000086a <_ZN12CameraVC070614getFrameLengthEv>:
 86a:	ef 92       	push	r14
 86c:	ff 92       	push	r15
 86e:	0f 93       	push	r16
 870:	1f 93       	push	r17
 872:	df 93       	push	r29
 874:	cf 93       	push	r28
 876:	0f 92       	push	r0
 878:	cd b7       	in	r28, 0x3d	; 61
 87a:	de b7       	in	r29, 0x3e	; 62
 87c:	7c 01       	movw	r14, r24
 87e:	19 82       	std	Y+1, r1	; 0x01
 880:	64 e3       	ldi	r22, 0x34	; 52
 882:	ae 01       	movw	r20, r28
 884:	4f 5f       	subi	r20, 0xFF	; 255
 886:	5f 4f       	sbci	r21, 0xFF	; 255
 888:	21 e0       	ldi	r18, 0x01	; 1
 88a:	09 e0       	ldi	r16, 0x09	; 9
 88c:	10 e0       	ldi	r17, 0x00	; 0
 88e:	0e 94 00 00 	call	0	; 0x0 <_ZN12CameraVC0706C2EP14SoftwareSerial>
 892:	88 23       	and	r24, r24
 894:	01 f4       	brne	.+0      	; 0x896 <_ZN12CameraVC070614getFrameLengthEv+0x2c>
 896:	f7 01       	movw	r30, r14
 898:	84 81       	ldd	r24, Z+4	; 0x04
 89a:	84 30       	cpi	r24, 0x04	; 4
 89c:	01 f4       	brne	.+0      	; 0x89e <_ZN12CameraVC070614getFrameLengthEv+0x34>
 89e:	20 e0       	ldi	r18, 0x00	; 0
 8a0:	30 e0       	ldi	r19, 0x00	; 0
 8a2:	c9 01       	movw	r24, r18
 8a4:	0f 90       	pop	r0
 8a6:	cf 91       	pop	r28
 8a8:	df 91       	pop	r29
 8aa:	1f 91       	pop	r17
 8ac:	0f 91       	pop	r16
 8ae:	ff 90       	pop	r15
 8b0:	ef 90       	pop	r14
 8b2:	08 95       	ret
 8b4:	f7 01       	movw	r30, r14
 8b6:	97 81       	ldd	r25, Z+7	; 0x07
 8b8:	80 e0       	ldi	r24, 0x00	; 0
 8ba:	20 85       	ldd	r18, Z+8	; 0x08
 8bc:	30 e0       	ldi	r19, 0x00	; 0
 8be:	28 2b       	or	r18, r24
 8c0:	39 2b       	or	r19, r25
 8c2:	00 c0       	rjmp	.+0      	; 0x8c4 <_ZN12CameraVC070611getDownSizeEv>

000008c4 <_ZN12CameraVC070611getDownSizeEv>:
 8c4:	0f 93       	push	r16
 8c6:	1f 93       	push	r17
 8c8:	cf 93       	push	r28
 8ca:	df 93       	push	r29
 8cc:	ec 01       	movw	r28, r24
 8ce:	65 e5       	ldi	r22, 0x55	; 85
 8d0:	4d b7       	in	r20, 0x3d	; 61
 8d2:	5e b7       	in	r21, 0x3e	; 62
 8d4:	4f 5f       	subi	r20, 0xFF	; 255
 8d6:	5f 4f       	sbci	r21, 0xFF	; 255
 8d8:	20 e0       	ldi	r18, 0x00	; 0
 8da:	06 e0       	ldi	r16, 0x06	; 6
 8dc:	10 e0       	ldi	r17, 0x00	; 0
 8de:	0e 94 00 00 	call	0	; 0x0 <_ZN12CameraVC0706C2EP14SoftwareSerial>
 8e2:	88 23       	and	r24, r24
 8e4:	01 f0       	breq	.+0      	; 0x8e6 <_ZN12CameraVC070611getDownSizeEv+0x22>
 8e6:	80 e0       	ldi	r24, 0x00	; 0
 8e8:	00 c0       	rjmp	.+0      	; 0x8ea <_ZN12CameraVC070611getDownSizeEv+0x26>
 8ea:	8d 81       	ldd	r24, Y+5	; 0x05
 8ec:	df 91       	pop	r29
 8ee:	cf 91       	pop	r28
 8f0:	1f 91       	pop	r17
 8f2:	0f 91       	pop	r16
 8f4:	08 95       	ret

000008f6 <_ZN12CameraVC070611setDownSizeEhh>:
 8f6:	0f 93       	push	r16
 8f8:	1f 93       	push	r17
 8fa:	df 93       	push	r29
 8fc:	cf 93       	push	r28
 8fe:	0f 92       	push	r0
 900:	cd b7       	in	r28, 0x3d	; 61
 902:	de b7       	in	r29, 0x3e	; 62
 904:	44 0f       	add	r20, r20
 906:	44 0f       	add	r20, r20
 908:	4c 70       	andi	r20, 0x0C	; 12
 90a:	63 70       	andi	r22, 0x03	; 3
 90c:	46 2b       	or	r20, r22
 90e:	49 83       	std	Y+1, r20	; 0x01
 910:	64 e5       	ldi	r22, 0x54	; 84
 912:	ae 01       	movw	r20, r28
 914:	4f 5f       	subi	r20, 0xFF	; 255
 916:	5f 4f       	sbci	r21, 0xFF	; 255
 918:	21 e0       	ldi	r18, 0x01	; 1
 91a:	05 e0       	ldi	r16, 0x05	; 5
 91c:	10 e0       	ldi	r17, 0x00	; 0
 91e:	0e 94 00 00 	call	0	; 0x0 <_ZN12CameraVC0706C2EP14SoftwareSerial>
 922:	0f 90       	pop	r0
 924:	cf 91       	pop	r28
 926:	df 91       	pop	r29
 928:	1f 91       	pop	r17
 92a:	0f 91       	pop	r16
 92c:	08 95       	ret

0000092e <_ZN12CameraVC07069readFrameEPhjjj>:
 92e:	8f 92       	push	r8
 930:	9f 92       	push	r9
 932:	af 92       	push	r10
 934:	bf 92       	push	r11
 936:	cf 92       	push	r12
 938:	df 92       	push	r13
 93a:	ef 92       	push	r14
 93c:	ff 92       	push	r15
 93e:	0f 93       	push	r16
 940:	1f 93       	push	r17
 942:	df 93       	push	r29
 944:	cf 93       	push	r28
 946:	cd b7       	in	r28, 0x3d	; 61
 948:	de b7       	in	r29, 0x3e	; 62
 94a:	2c 97       	sbiw	r28, 0x0c	; 12
 94c:	0f b6       	in	r0, 0x3f	; 63
 94e:	f8 94       	cli
 950:	de bf       	out	0x3e, r29	; 62
 952:	0f be       	out	0x3f, r0	; 63
 954:	cd bf       	out	0x3d, r28	; 61
 956:	6c 01       	movw	r12, r24
 958:	4b 01       	movw	r8, r22
 95a:	59 01       	movw	r10, r18
 95c:	78 01       	movw	r14, r16
 95e:	fe 01       	movw	r30, r28
 960:	31 96       	adiw	r30, 0x01	; 1
 962:	8c e0       	ldi	r24, 0x0C	; 12
 964:	df 01       	movw	r26, r30
 966:	1d 92       	st	X+, r1
 968:	8a 95       	dec	r24
 96a:	01 f4       	brne	.+0      	; 0x96c <_ZN12CameraVC07069readFrameEPhjjj+0x3e>
 96c:	8a e0       	ldi	r24, 0x0A	; 10
 96e:	8a 83       	std	Y+2, r24	; 0x02
 970:	81 e0       	ldi	r24, 0x01	; 1
 972:	8b 87       	std	Y+11, r24	; 0x0b
 974:	5d 83       	std	Y+5, r21	; 0x05
 976:	4e 83       	std	Y+6, r20	; 0x06
 978:	f9 86       	std	Y+9, r15	; 0x09
 97a:	0a 87       	std	Y+10, r16	; 0x0a
 97c:	c6 01       	movw	r24, r12
 97e:	62 e3       	ldi	r22, 0x32	; 50
 980:	af 01       	movw	r20, r30
 982:	2c e0       	ldi	r18, 0x0C	; 12
 984:	05 e0       	ldi	r16, 0x05	; 5
 986:	10 e0       	ldi	r17, 0x00	; 0
 988:	0e 94 00 00 	call	0	; 0x0 <_ZN12CameraVC0706C2EP14SoftwareSerial>
 98c:	88 23       	and	r24, r24
 98e:	01 f4       	brne	.+0      	; 0x990 <_ZN12CameraVC07069readFrameEPhjjj+0x62>
 990:	00 e0       	ldi	r16, 0x00	; 0
 992:	10 e0       	ldi	r17, 0x00	; 0
 994:	00 c0       	rjmp	.+0      	; 0x996 <_ZN12CameraVC07069readFrameEPhjjj+0x68>
 996:	00 e0       	ldi	r16, 0x00	; 0
 998:	10 e0       	ldi	r17, 0x00	; 0
 99a:	00 c0       	rjmp	.+0      	; 0x99c <_ZN12CameraVC07069readFrameEPhjjj+0x6e>
 99c:	6a e0       	ldi	r22, 0x0A	; 10
 99e:	70 e0       	ldi	r23, 0x00	; 0
 9a0:	80 e0       	ldi	r24, 0x00	; 0
 9a2:	90 e0       	ldi	r25, 0x00	; 0
 9a4:	0e 94 00 00 	call	0	; 0x0 <_ZN12CameraVC0706C2EP14SoftwareSerial>
 9a8:	b8 01       	movw	r22, r16
 9aa:	6a 0d       	add	r22, r10
 9ac:	7b 1d       	adc	r23, r11
 9ae:	68 0d       	add	r22, r8
 9b0:	79 1d       	adc	r23, r9
 9b2:	a7 01       	movw	r20, r14
 9b4:	40 1b       	sub	r20, r16
 9b6:	51 0b       	sbc	r21, r17
 9b8:	c6 01       	movw	r24, r12
 9ba:	0e 94 00 00 	call	0	; 0x0 <_ZN12CameraVC0706C2EP14SoftwareSerial>
 9be:	08 0f       	add	r16, r24
 9c0:	19 1f       	adc	r17, r25
 9c2:	0e 15       	cp	r16, r14
 9c4:	1f 05       	cpc	r17, r15
 9c6:	00 f0       	brcs	.+0      	; 0x9c8 <_ZN12CameraVC07069readFrameEPhjjj+0x9a>
 9c8:	c6 01       	movw	r24, r12
 9ca:	65 e0       	ldi	r22, 0x05	; 5
 9cc:	70 e0       	ldi	r23, 0x00	; 0
 9ce:	0e 94 00 00 	call	0	; 0x0 <_ZN12CameraVC0706C2EP14SoftwareSerial>
 9d2:	c8 01       	movw	r24, r16
 9d4:	2c 96       	adiw	r28, 0x0c	; 12
 9d6:	0f b6       	in	r0, 0x3f	; 63
 9d8:	f8 94       	cli
 9da:	de bf       	out	0x3e, r29	; 62
 9dc:	0f be       	out	0x3f, r0	; 63
 9de:	cd bf       	out	0x3d, r28	; 61
 9e0:	cf 91       	pop	r28
 9e2:	df 91       	pop	r29
 9e4:	1f 91       	pop	r17
 9e6:	0f 91       	pop	r16
 9e8:	ff 90       	pop	r15
 9ea:	ef 90       	pop	r14
 9ec:	df 90       	pop	r13
 9ee:	cf 90       	pop	r12
 9f0:	bf 90       	pop	r11
 9f2:	af 90       	pop	r10
 9f4:	9f 90       	pop	r9
 9f6:	8f 90       	pop	r8
 9f8:	08 95       	ret

000009fa <_ZN12CameraVC070620executeBufferControlEh>:
 9fa:	0f 93       	push	r16
 9fc:	1f 93       	push	r17
 9fe:	df 93       	push	r29
 a00:	cf 93       	push	r28
 a02:	0f 92       	push	r0
 a04:	cd b7       	in	r28, 0x3d	; 61
 a06:	de b7       	in	r29, 0x3e	; 62
 a08:	63 70       	andi	r22, 0x03	; 3
 a0a:	69 83       	std	Y+1, r22	; 0x01
 a0c:	66 e3       	ldi	r22, 0x36	; 54
 a0e:	ae 01       	movw	r20, r28
 a10:	4f 5f       	subi	r20, 0xFF	; 255
 a12:	5f 4f       	sbci	r21, 0xFF	; 255
 a14:	21 e0       	ldi	r18, 0x01	; 1
 a16:	05 e0       	ldi	r16, 0x05	; 5
 a18:	10 e0       	ldi	r17, 0x00	; 0
 a1a:	0e 94 00 00 	call	0	; 0x0 <_ZN12CameraVC0706C2EP14SoftwareSerial>
 a1e:	0f 90       	pop	r0
 a20:	cf 91       	pop	r28
 a22:	df 91       	pop	r29
 a24:	1f 91       	pop	r17
 a26:	0f 91       	pop	r16
 a28:	08 95       	ret

00000a2a <_ZN12CameraVC07066resumeEv>:
 a2a:	63 e0       	ldi	r22, 0x03	; 3
 a2c:	0e 94 00 00 	call	0	; 0x0 <_ZN12CameraVC0706C2EP14SoftwareSerial>
 a30:	08 95       	ret

00000a32 <_ZN12CameraVC07067captureEv>:
 a32:	60 e0       	ldi	r22, 0x00	; 0
 a34:	0e 94 00 00 	call	0	; 0x0 <_ZN12CameraVC0706C2EP14SoftwareSerial>
 a38:	08 95       	ret

00000a3a <_ZN12CameraVC070620pollMotionMonitoringEjPFvPvE>:
 a3a:	8f 92       	push	r8
 a3c:	9f 92       	push	r9
 a3e:	af 92       	push	r10
 a40:	bf 92       	push	r11
 a42:	cf 92       	push	r12
 a44:	df 92       	push	r13
 a46:	ef 92       	push	r14
 a48:	ff 92       	push	r15
 a4a:	0f 93       	push	r16
 a4c:	1f 93       	push	r17
 a4e:	cf 93       	push	r28
 a50:	df 93       	push	r29
 a52:	ec 01       	movw	r28, r24
 a54:	8b 01       	movw	r16, r22
 a56:	4a 01       	movw	r8, r20
 a58:	0e 94 00 00 	call	0	; 0x0 <_ZN12CameraVC0706C2EP14SoftwareSerial>
 a5c:	5b 01       	movw	r10, r22
 a5e:	6c 01       	movw	r12, r24
 a60:	78 01       	movw	r14, r16
 a62:	00 e0       	ldi	r16, 0x00	; 0
 a64:	10 e0       	ldi	r17, 0x00	; 0
 a66:	ce 01       	movw	r24, r28
 a68:	64 e0       	ldi	r22, 0x04	; 4
 a6a:	70 e0       	ldi	r23, 0x00	; 0
 a6c:	0e 94 00 00 	call	0	; 0x0 <_ZN12CameraVC0706C2EP14SoftwareSerial>
 a70:	88 81       	ld	r24, Y
 a72:	86 37       	cpi	r24, 0x76	; 118
 a74:	01 f4       	brne	.+0      	; 0xa76 <_ZN12CameraVC070620pollMotionMonitoringEjPFvPvE+0x3c>
 a76:	99 81       	ldd	r25, Y+1	; 0x01
 a78:	89 89       	ldd	r24, Y+17	; 0x11
 a7a:	98 17       	cp	r25, r24
 a7c:	01 f4       	brne	.+0      	; 0xa7e <_ZN12CameraVC070620pollMotionMonitoringEjPFvPvE+0x44>
 a7e:	8a 81       	ldd	r24, Y+2	; 0x02
 a80:	89 33       	cpi	r24, 0x39	; 57
 a82:	01 f4       	brne	.+0      	; 0xa84 <_ZN12CameraVC070620pollMotionMonitoringEjPFvPvE+0x4a>
 a84:	8b 81       	ldd	r24, Y+3	; 0x03
 a86:	88 23       	and	r24, r24
 a88:	01 f4       	brne	.+0      	; 0xa8a <_ZN12CameraVC070620pollMotionMonitoringEjPFvPvE+0x50>
 a8a:	00 c0       	rjmp	.+0      	; 0xa8c <_ZN12CameraVC070620pollMotionMonitoringEjPFvPvE+0x52>
 a8c:	ce 01       	movw	r24, r28
 a8e:	f4 01       	movw	r30, r8
 a90:	09 95       	icall
 a92:	00 c0       	rjmp	.+0      	; 0xa94 <_ZN12CameraVC070620pollMotionMonitoringEjPFvPvE+0x5a>
 a94:	0e 94 00 00 	call	0	; 0x0 <_ZN12CameraVC0706C2EP14SoftwareSerial>
 a98:	6a 19       	sub	r22, r10
 a9a:	7b 09       	sbc	r23, r11
 a9c:	8c 09       	sbc	r24, r12
 a9e:	9d 09       	sbc	r25, r13
 aa0:	6e 15       	cp	r22, r14
 aa2:	7f 05       	cpc	r23, r15
 aa4:	80 07       	cpc	r24, r16
 aa6:	91 07       	cpc	r25, r17
 aa8:	00 f0       	brcs	.+0      	; 0xaaa <_ZN12CameraVC070620pollMotionMonitoringEjPFvPvE+0x70>
 aaa:	80 e0       	ldi	r24, 0x00	; 0
 aac:	df 91       	pop	r29
 aae:	cf 91       	pop	r28
 ab0:	1f 91       	pop	r17
 ab2:	0f 91       	pop	r16
 ab4:	ff 90       	pop	r15
 ab6:	ef 90       	pop	r14
 ab8:	df 90       	pop	r13
 aba:	cf 90       	pop	r12
 abc:	bf 90       	pop	r11
 abe:	af 90       	pop	r10
 ac0:	9f 90       	pop	r9
 ac2:	8f 90       	pop	r8
 ac4:	08 95       	ret
 ac6:	81 14       	cp	r8, r1
 ac8:	91 04       	cpc	r9, r1
 aca:	01 f4       	brne	.+0      	; 0xacc <_ZN12CameraVC070620pollMotionMonitoringEjPFvPvE+0x92>
 acc:	81 e0       	ldi	r24, 0x01	; 1
 ace:	00 c0       	rjmp	.+0      	; 0xad0 <_ZN12CameraVC07065closeEv>

00000ad0 <_ZN12CameraVC07065closeEv>:
 ad0:	fc 01       	movw	r30, r24
 ad2:	86 89       	ldd	r24, Z+22	; 0x16
 ad4:	97 89       	ldd	r25, Z+23	; 0x17
 ad6:	0e 94 00 00 	call	0	; 0x0 <_ZN12CameraVC0706C2EP14SoftwareSerial>
 ada:	81 e0       	ldi	r24, 0x01	; 1
 adc:	08 95       	ret

00000ade <_ZN12CameraVC07065beginEj>:
 ade:	ab 01       	movw	r20, r22
 ae0:	60 e0       	ldi	r22, 0x00	; 0
 ae2:	70 e0       	ldi	r23, 0x00	; 0
 ae4:	fc 01       	movw	r30, r24
 ae6:	86 89       	ldd	r24, Z+22	; 0x16
 ae8:	97 89       	ldd	r25, Z+23	; 0x17
 aea:	0e 94 00 00 	call	0	; 0x0 <_ZN12CameraVC0706C2EP14SoftwareSerial>
 aee:	81 e0       	ldi	r24, 0x01	; 1
 af0:	08 95       	ret

CameraOV7670.o:     file format elf32-avr

Sections:
Idx Name          Size      VMA       LMA       File off  Algn
  0 .text         00000046  00000000  00000000  00000034  2**0
                  CONTENTS, ALLOC, LOAD, RELOC, READONLY, CODE
  1 .data         0000000c  00000000  00000000  0000007a  2**0
                  CONTENTS, ALLOC, LOAD, RELOC, DATA
  2 .bss          00000000  00000000  00000000  00000086  2**0
                  ALLOC
Disassembly of section .text:

00000000 <_ZN12CameraOV76709readFrameEP12OutputStream>:
   0:	80 e0       	ldi	r24, 0x00	; 0
   2:	90 e0       	ldi	r25, 0x00	; 0
   4:	08 95       	ret

00000006 <_ZN12CameraOV7670C1EPFhvEhh>:
   6:	fc 01       	movw	r30, r24
   8:	80 e0       	ldi	r24, 0x00	; 0
   a:	90 e0       	ldi	r25, 0x00	; 0
   c:	91 83       	std	Z+1, r25	; 0x01
   e:	80 83       	st	Z, r24
  10:	73 83       	std	Z+3, r23	; 0x03
  12:	62 83       	std	Z+2, r22	; 0x02
  14:	44 83       	std	Z+4, r20	; 0x04
  16:	25 83       	std	Z+5, r18	; 0x05
  18:	82 e4       	ldi	r24, 0x42	; 66
  1a:	86 83       	std	Z+6, r24	; 0x06
  1c:	80 e0       	ldi	r24, 0x00	; 0
  1e:	90 e0       	ldi	r25, 0x00	; 0
  20:	0e 94 00 00 	call	0	; 0x0 <_ZN12CameraOV76709readFrameEP12OutputStream>
  24:	08 95       	ret

00000026 <_ZN12CameraOV7670C2EPFhvEhh>:
  26:	fc 01       	movw	r30, r24
  28:	80 e0       	ldi	r24, 0x00	; 0
  2a:	90 e0       	ldi	r25, 0x00	; 0
  2c:	91 83       	std	Z+1, r25	; 0x01
  2e:	80 83       	st	Z, r24
  30:	73 83       	std	Z+3, r23	; 0x03
  32:	62 83       	std	Z+2, r22	; 0x02
  34:	44 83       	std	Z+4, r20	; 0x04
  36:	25 83       	std	Z+5, r18	; 0x05
  38:	82 e4       	ldi	r24, 0x42	; 66
  3a:	86 83       	std	Z+6, r24	; 0x06
  3c:	80 e0       	ldi	r24, 0x00	; 0
  3e:	90 e0       	ldi	r25, 0x00	; 0
  40:	0e 94 00 00 	call	0	; 0x0 <_ZN12CameraOV76709readFrameEP12OutputStream>
  44:	08 95       	ret

CameraAL422B.o:     file format elf32-avr

Sections:
Idx Name          Size      VMA       LMA       File off  Algn
  0 .text         00000606  00000000  00000000  00000034  2**0
                  CONTENTS, ALLOC, LOAD, RELOC, READONLY, CODE
  1 .data         0000000c  00000000  00000000  0000063a  2**0
                  CONTENTS, ALLOC, LOAD, RELOC, DATA
  2 .bss          00000000  00000000  00000000  00000646  2**0
                  ALLOC
Disassembly of section .text:

00000000 <_ZN12CameraAL422BC2EPFhvEhhhh>:
   0:	ef 92       	push	r14
   2:	0f 93       	push	r16
   4:	fc 01       	movw	r30, r24
   6:	80 e0       	ldi	r24, 0x00	; 0
   8:	90 e0       	ldi	r25, 0x00	; 0
   a:	91 83       	std	Z+1, r25	; 0x01
   c:	80 83       	st	Z, r24
   e:	73 83       	std	Z+3, r23	; 0x03
  10:	62 83       	std	Z+2, r22	; 0x02
  12:	44 83       	std	Z+4, r20	; 0x04
  14:	25 83       	std	Z+5, r18	; 0x05
  16:	06 83       	std	Z+6, r16	; 0x06
  18:	e7 82       	std	Z+7, r14	; 0x07
  1a:	82 e4       	ldi	r24, 0x42	; 66
  1c:	80 87       	std	Z+8, r24	; 0x08
  1e:	80 e8       	ldi	r24, 0x80	; 128
  20:	92 e0       	ldi	r25, 0x02	; 2
  22:	92 87       	std	Z+10, r25	; 0x0a
  24:	81 87       	std	Z+9, r24	; 0x09
  26:	80 ee       	ldi	r24, 0xE0	; 224
  28:	91 e0       	ldi	r25, 0x01	; 1
  2a:	94 87       	std	Z+12, r25	; 0x0c
  2c:	83 87       	std	Z+11, r24	; 0x0b
  2e:	0f 91       	pop	r16
  30:	ef 90       	pop	r14
  32:	08 95       	ret

00000034 <_ZN12CameraAL422BC1EPFhvEhhhh>:
  34:	ef 92       	push	r14
  36:	0f 93       	push	r16
  38:	fc 01       	movw	r30, r24
  3a:	80 e0       	ldi	r24, 0x00	; 0
  3c:	90 e0       	ldi	r25, 0x00	; 0
  3e:	91 83       	std	Z+1, r25	; 0x01
  40:	80 83       	st	Z, r24
  42:	73 83       	std	Z+3, r23	; 0x03
  44:	62 83       	std	Z+2, r22	; 0x02
  46:	44 83       	std	Z+4, r20	; 0x04
  48:	25 83       	std	Z+5, r18	; 0x05
  4a:	06 83       	std	Z+6, r16	; 0x06
  4c:	e7 82       	std	Z+7, r14	; 0x07
  4e:	82 e4       	ldi	r24, 0x42	; 66
  50:	80 87       	std	Z+8, r24	; 0x08
  52:	80 e8       	ldi	r24, 0x80	; 128
  54:	92 e0       	ldi	r25, 0x02	; 2
  56:	92 87       	std	Z+10, r25	; 0x0a
  58:	81 87       	std	Z+9, r24	; 0x09
  5a:	80 ee       	ldi	r24, 0xE0	; 224
  5c:	91 e0       	ldi	r25, 0x01	; 1
  5e:	94 87       	std	Z+12, r25	; 0x0c
  60:	83 87       	std	Z+11, r24	; 0x0b
  62:	0f 91       	pop	r16
  64:	ef 90       	pop	r14
  66:	08 95       	ret

00000068 <_ZN12CameraAL422B7captureEv>:
  68:	0f 93       	push	r16
  6a:	1f 93       	push	r17
  6c:	cf 93       	push	r28
  6e:	df 93       	push	r29
  70:	ec 01       	movw	r28, r24
  72:	ac 81       	ldd	r26, Y+4	; 0x04
  74:	6a 2f       	mov	r22, r26
  76:	70 e0       	ldi	r23, 0x00	; 0
  78:	8b 01       	movw	r16, r22
  7a:	0e 50       	subi	r16, 0x0E	; 14
  7c:	10 40       	sbci	r17, 0x00	; 0
  7e:	fb 01       	movw	r30, r22
  80:	38 97       	sbiw	r30, 0x08	; 8
  82:	a8 30       	cpi	r26, 0x08	; 8
  84:	00 f4       	brcc	.+0      	; 0x86 <_ZN12CameraAL422B7captureEv+0x1e>
  86:	8b b1       	in	r24, 0x0b	; 11
  88:	90 e0       	ldi	r25, 0x00	; 0
  8a:	06 2e       	mov	r0, r22
  8c:	00 c0       	rjmp	.+0      	; 0x8e <_ZN12CameraAL422B7captureEv+0x26>
  8e:	95 95       	asr	r25
  90:	87 95       	ror	r24
  92:	0a 94       	dec	r0
  94:	02 f4       	brpl	.+0      	; 0x96 <_ZN12CameraAL422B7captureEv+0x2e>
  96:	00 c0       	rjmp	.+0      	; 0x98 <_ZN12CameraAL422B7captureEv+0x30>
  98:	ae 30       	cpi	r26, 0x0E	; 14
  9a:	00 f0       	brcs	.+0      	; 0x9c <_ZN12CameraAL422B7captureEv+0x34>
  9c:	88 b1       	in	r24, 0x08	; 8
  9e:	90 e0       	ldi	r25, 0x00	; 0
  a0:	00 2e       	mov	r0, r16
  a2:	00 c0       	rjmp	.+0      	; 0xa4 <_ZN12CameraAL422B7captureEv+0x3c>
  a4:	95 95       	asr	r25
  a6:	87 95       	ror	r24
  a8:	0a 94       	dec	r0
  aa:	02 f4       	brpl	.+0      	; 0xac <_ZN12CameraAL422B7captureEv+0x44>
  ac:	00 c0       	rjmp	.+0      	; 0xae <_ZN12CameraAL422B7captureEv+0x46>
  ae:	85 b1       	in	r24, 0x05	; 5
  b0:	90 e0       	ldi	r25, 0x00	; 0
  b2:	0e 2e       	mov	r0, r30
  b4:	00 c0       	rjmp	.+0      	; 0xb6 <_ZN12CameraAL422B7captureEv+0x4e>
  b6:	95 95       	asr	r25
  b8:	87 95       	ror	r24
  ba:	0a 94       	dec	r0
  bc:	02 f4       	brpl	.+0      	; 0xbe <_ZN12CameraAL422B7captureEv+0x56>
  be:	81 70       	andi	r24, 0x01	; 1
  c0:	01 f4       	brne	.+0      	; 0xc2 <_ZN12CameraAL422B7captureEv+0x5a>
  c2:	a8 30       	cpi	r26, 0x08	; 8
  c4:	00 f0       	brcs	.+0      	; 0xc6 <_ZN12CameraAL422B7captureEv+0x5e>
  c6:	8b b1       	in	r24, 0x0b	; 11
  c8:	90 e0       	ldi	r25, 0x00	; 0
  ca:	06 2e       	mov	r0, r22
  cc:	00 c0       	rjmp	.+0      	; 0xce <_ZN12CameraAL422B7captureEv+0x66>
  ce:	95 95       	asr	r25
  d0:	87 95       	ror	r24
  d2:	0a 94       	dec	r0
  d4:	02 f4       	brpl	.+0      	; 0xd6 <_ZN12CameraAL422B7captureEv+0x6e>
  d6:	00 c0       	rjmp	.+0      	; 0xd8 <_ZN12CameraAL422B7captureEv+0x70>
  d8:	85 b1       	in	r24, 0x05	; 5
  da:	90 e0       	ldi	r25, 0x00	; 0
  dc:	0e 2e       	mov	r0, r30
  de:	00 c0       	rjmp	.+0      	; 0xe0 <_ZN12CameraAL422B7captureEv+0x78>
  e0:	95 95       	asr	r25
  e2:	87 95       	ror	r24
  e4:	0a 94       	dec	r0
  e6:	02 f4       	brpl	.+0      	; 0xe8 <_ZN12CameraAL422B7captureEv+0x80>
  e8:	81 70       	andi	r24, 0x01	; 1
  ea:	01 f4       	brne	.+0      	; 0xec <_ZN12CameraAL422B7captureEv+0x84>
  ec:	3d 81       	ldd	r19, Y+5	; 0x05
  ee:	38 30       	cpi	r19, 0x08	; 8
  f0:	00 f4       	brcc	.+0      	; 0xf2 <_ZN12CameraAL422B7captureEv+0x8a>
  f2:	2b b1       	in	r18, 0x0b	; 11
  f4:	81 e0       	ldi	r24, 0x01	; 1
  f6:	90 e0       	ldi	r25, 0x00	; 0
  f8:	03 2e       	mov	r0, r19
  fa:	00 c0       	rjmp	.+0      	; 0xfc <_ZN12CameraAL422B7captureEv+0x94>
  fc:	88 0f       	add	r24, r24
  fe:	99 1f       	adc	r25, r25
 100:	0a 94       	dec	r0
 102:	02 f4       	brpl	.+0      	; 0x104 <_ZN12CameraAL422B7captureEv+0x9c>
 104:	80 95       	com	r24
 106:	82 23       	and	r24, r18
 108:	8b b9       	out	0x0b, r24	; 11
 10a:	00 c0       	rjmp	.+0      	; 0x10c <_ZN12CameraAL422B7captureEv+0xa4>
 10c:	43 2f       	mov	r20, r19
 10e:	50 e0       	ldi	r21, 0x00	; 0
 110:	3e 30       	cpi	r19, 0x0E	; 14
 112:	00 f0       	brcs	.+0      	; 0x114 <_ZN12CameraAL422B7captureEv+0xac>
 114:	28 b1       	in	r18, 0x08	; 8
 116:	4e 50       	subi	r20, 0x0E	; 14
 118:	50 40       	sbci	r21, 0x00	; 0
 11a:	81 e0       	ldi	r24, 0x01	; 1
 11c:	90 e0       	ldi	r25, 0x00	; 0
 11e:	00 c0       	rjmp	.+0      	; 0x120 <_ZN12CameraAL422B7captureEv+0xb8>
 120:	88 0f       	add	r24, r24
 122:	99 1f       	adc	r25, r25
 124:	4a 95       	dec	r20
 126:	02 f4       	brpl	.+0      	; 0x128 <_ZN12CameraAL422B7captureEv+0xc0>
 128:	80 95       	com	r24
 12a:	82 23       	and	r24, r18
 12c:	88 b9       	out	0x08, r24	; 8
 12e:	00 c0       	rjmp	.+0      	; 0x130 <_ZN12CameraAL422B7captureEv+0xc8>
 130:	25 b1       	in	r18, 0x05	; 5
 132:	48 50       	subi	r20, 0x08	; 8
 134:	50 40       	sbci	r21, 0x00	; 0
 136:	81 e0       	ldi	r24, 0x01	; 1
 138:	90 e0       	ldi	r25, 0x00	; 0
 13a:	00 c0       	rjmp	.+0      	; 0x13c <_ZN12CameraAL422B7captureEv+0xd4>
 13c:	88 0f       	add	r24, r24
 13e:	99 1f       	adc	r25, r25
 140:	4a 95       	dec	r20
 142:	02 f4       	brpl	.+0      	; 0x144 <_ZN12CameraAL422B7captureEv+0xdc>
 144:	80 95       	com	r24
 146:	82 23       	and	r24, r18
 148:	85 b9       	out	0x05, r24	; 5
 14a:	a8 30       	cpi	r26, 0x08	; 8
 14c:	00 f4       	brcc	.+0      	; 0x14e <_ZN12CameraAL422B7captureEv+0xe6>
 14e:	8b b1       	in	r24, 0x0b	; 11
 150:	90 e0       	ldi	r25, 0x00	; 0
 152:	06 2e       	mov	r0, r22
 154:	00 c0       	rjmp	.+0      	; 0x156 <_ZN12CameraAL422B7captureEv+0xee>
 156:	95 95       	asr	r25
 158:	87 95       	ror	r24
 15a:	0a 94       	dec	r0
 15c:	02 f4       	brpl	.+0      	; 0x15e <_ZN12CameraAL422B7captureEv+0xf6>
 15e:	00 c0       	rjmp	.+0      	; 0x160 <_ZN12CameraAL422B7captureEv+0xf8>
 160:	ae 30       	cpi	r26, 0x0E	; 14
 162:	00 f0       	brcs	.+0      	; 0x164 <_ZN12CameraAL422B7captureEv+0xfc>
 164:	88 b1       	in	r24, 0x08	; 8
 166:	90 e0       	ldi	r25, 0x00	; 0
 168:	00 2e       	mov	r0, r16
 16a:	00 c0       	rjmp	.+0      	; 0x16c <_ZN12CameraAL422B7captureEv+0x104>
 16c:	95 95       	asr	r25
 16e:	87 95       	ror	r24
 170:	0a 94       	dec	r0
 172:	02 f4       	brpl	.+0      	; 0x174 <_ZN12CameraAL422B7captureEv+0x10c>
 174:	00 c0       	rjmp	.+0      	; 0x176 <_ZN12CameraAL422B7captureEv+0x10e>
 176:	85 b1       	in	r24, 0x05	; 5
 178:	90 e0       	ldi	r25, 0x00	; 0
 17a:	0e 2e       	mov	r0, r30
 17c:	00 c0       	rjmp	.+0      	; 0x17e <_ZN12CameraAL422B7captureEv+0x116>
 17e:	95 95       	asr	r25
 180:	87 95       	ror	r24
 182:	0a 94       	dec	r0
 184:	02 f4       	brpl	.+0      	; 0x186 <_ZN12CameraAL422B7captureEv+0x11e>
 186:	81 70       	andi	r24, 0x01	; 1
 188:	01 f4       	brne	.+0      	; 0x18a <_ZN12CameraAL422B7captureEv+0x122>
 18a:	38 30       	cpi	r19, 0x08	; 8
 18c:	00 f4       	brcc	.+0      	; 0x18e <_ZN12CameraAL422B7captureEv+0x126>
 18e:	2b b1       	in	r18, 0x0b	; 11
 190:	81 e0       	ldi	r24, 0x01	; 1
 192:	90 e0       	ldi	r25, 0x00	; 0
 194:	00 c0       	rjmp	.+0      	; 0x196 <_ZN12CameraAL422B7captureEv+0x12e>
 196:	88 0f       	add	r24, r24
 198:	99 1f       	adc	r25, r25
 19a:	3a 95       	dec	r19
 19c:	02 f4       	brpl	.+0      	; 0x19e <_ZN12CameraAL422B7captureEv+0x136>
 19e:	28 2b       	or	r18, r24
 1a0:	2b b9       	out	0x0b, r18	; 11
 1a2:	00 c0       	rjmp	.+0      	; 0x1a4 <_ZN12CameraAL422B7captureEv+0x13c>
 1a4:	43 2f       	mov	r20, r19
 1a6:	50 e0       	ldi	r21, 0x00	; 0
 1a8:	3e 30       	cpi	r19, 0x0E	; 14
 1aa:	00 f0       	brcs	.+0      	; 0x1ac <_ZN12CameraAL422B7captureEv+0x144>
 1ac:	28 b1       	in	r18, 0x08	; 8
 1ae:	4e 50       	subi	r20, 0x0E	; 14
 1b0:	50 40       	sbci	r21, 0x00	; 0
 1b2:	81 e0       	ldi	r24, 0x01	; 1
 1b4:	90 e0       	ldi	r25, 0x00	; 0
 1b6:	00 c0       	rjmp	.+0      	; 0x1b8 <_ZN12CameraAL422B7captureEv+0x150>
 1b8:	88 0f       	add	r24, r24
 1ba:	99 1f       	adc	r25, r25
 1bc:	4a 95       	dec	r20
 1be:	02 f4       	brpl	.+0      	; 0x1c0 <_ZN12CameraAL422B7captureEv+0x158>
 1c0:	28 2b       	or	r18, r24
 1c2:	28 b9       	out	0x08, r18	; 8
 1c4:	00 c0       	rjmp	.+0      	; 0x1c6 <_ZN12CameraAL422B7captureEv+0x15e>
 1c6:	25 b1       	in	r18, 0x05	; 5
 1c8:	48 50       	subi	r20, 0x08	; 8
 1ca:	50 40       	sbci	r21, 0x00	; 0
 1cc:	81 e0       	ldi	r24, 0x01	; 1
 1ce:	90 e0       	ldi	r25, 0x00	; 0
 1d0:	00 c0       	rjmp	.+0      	; 0x1d2 <_ZN12CameraAL422B7captureEv+0x16a>
 1d2:	88 0f       	add	r24, r24
 1d4:	99 1f       	adc	r25, r25
 1d6:	4a 95       	dec	r20
 1d8:	02 f4       	brpl	.+0      	; 0x1da <_ZN12CameraAL422B7captureEv+0x172>
 1da:	28 2b       	or	r18, r24
 1dc:	25 b9       	out	0x05, r18	; 5
 1de:	81 e0       	ldi	r24, 0x01	; 1
 1e0:	df 91       	pop	r29
 1e2:	cf 91       	pop	r28
 1e4:	1f 91       	pop	r17
 1e6:	0f 91       	pop	r16
 1e8:	08 95       	ret

000001ea <_ZN12CameraAL422B7readRowEP12OutputStream>:
 1ea:	af 92       	push	r10
 1ec:	bf 92       	push	r11
 1ee:	cf 92       	push	r12
 1f0:	df 92       	push	r13
 1f2:	ef 92       	push	r14
 1f4:	ff 92       	push	r15
 1f6:	0f 93       	push	r16
 1f8:	1f 93       	push	r17
 1fa:	cf 93       	push	r28
 1fc:	df 93       	push	r29
 1fe:	7c 01       	movw	r14, r24
 200:	5b 01       	movw	r10, r22
 202:	c0 e0       	ldi	r28, 0x00	; 0
 204:	d0 e0       	ldi	r29, 0x00	; 0
 206:	81 e0       	ldi	r24, 0x01	; 1
 208:	c8 2e       	mov	r12, r24
 20a:	d1 2c       	mov	r13, r1
 20c:	00 c0       	rjmp	.+0      	; 0x20e <_ZN12CameraAL422B7readRowEP12OutputStream+0x24>
 20e:	d7 01       	movw	r26, r14
 210:	16 96       	adiw	r26, 0x06	; 6
 212:	3c 91       	ld	r19, X
 214:	38 30       	cpi	r19, 0x08	; 8
 216:	00 f4       	brcc	.+0      	; 0x218 <_ZN12CameraAL422B7readRowEP12OutputStream+0x2e>
 218:	2b b1       	in	r18, 0x0b	; 11
 21a:	c6 01       	movw	r24, r12
 21c:	00 c0       	rjmp	.+0      	; 0x21e <_ZN12CameraAL422B7readRowEP12OutputStream+0x34>
 21e:	88 0f       	add	r24, r24
 220:	99 1f       	adc	r25, r25
 222:	3a 95       	dec	r19
 224:	02 f4       	brpl	.+0      	; 0x226 <_ZN12CameraAL422B7readRowEP12OutputStream+0x3c>
 226:	28 2b       	or	r18, r24
 228:	2b b9       	out	0x0b, r18	; 11
 22a:	00 c0       	rjmp	.+0      	; 0x22c <_ZN12CameraAL422B7readRowEP12OutputStream+0x42>
 22c:	83 2f       	mov	r24, r19
 22e:	90 e0       	ldi	r25, 0x00	; 0
 230:	3e 30       	cpi	r19, 0x0E	; 14
 232:	00 f0       	brcs	.+0      	; 0x234 <_ZN12CameraAL422B7readRowEP12OutputStream+0x4a>
 234:	28 b1       	in	r18, 0x08	; 8
 236:	0e 97       	sbiw	r24, 0x0e	; 14
 238:	f6 01       	movw	r30, r12
 23a:	00 c0       	rjmp	.+0      	; 0x23c <_ZN12CameraAL422B7readRowEP12OutputStream+0x52>
 23c:	ee 0f       	add	r30, r30
 23e:	ff 1f       	adc	r31, r31
 240:	8a 95       	dec	r24
 242:	02 f4       	brpl	.+0      	; 0x244 <_ZN12CameraAL422B7readRowEP12OutputStream+0x5a>
 244:	2e 2b       	or	r18, r30
 246:	28 b9       	out	0x08, r18	; 8
 248:	00 c0       	rjmp	.+0      	; 0x24a <_ZN12CameraAL422B7readRowEP12OutputStream+0x60>
 24a:	25 b1       	in	r18, 0x05	; 5
 24c:	08 97       	sbiw	r24, 0x08	; 8
 24e:	a6 01       	movw	r20, r12
 250:	00 c0       	rjmp	.+0      	; 0x252 <_ZN12CameraAL422B7readRowEP12OutputStream+0x68>
 252:	44 0f       	add	r20, r20
 254:	55 1f       	adc	r21, r21
 256:	8a 95       	dec	r24
 258:	02 f4       	brpl	.+0      	; 0x25a <_ZN12CameraAL422B7readRowEP12OutputStream+0x70>
 25a:	24 2b       	or	r18, r20
 25c:	25 b9       	out	0x05, r18	; 5
 25e:	d5 01       	movw	r26, r10
 260:	ed 91       	ld	r30, X+
 262:	fc 91       	ld	r31, X
 264:	04 81       	ldd	r16, Z+4	; 0x04
 266:	15 81       	ldd	r17, Z+5	; 0x05
 268:	d7 01       	movw	r26, r14
 26a:	12 96       	adiw	r26, 0x02	; 2
 26c:	ed 91       	ld	r30, X+
 26e:	fc 91       	ld	r31, X
 270:	13 97       	sbiw	r26, 0x03	; 3
 272:	09 95       	icall
 274:	68 2f       	mov	r22, r24
 276:	c5 01       	movw	r24, r10
 278:	f8 01       	movw	r30, r16
 27a:	09 95       	icall
 27c:	f7 01       	movw	r30, r14
 27e:	36 81       	ldd	r19, Z+6	; 0x06
 280:	38 30       	cpi	r19, 0x08	; 8
 282:	00 f4       	brcc	.+0      	; 0x284 <_ZN12CameraAL422B7readRowEP12OutputStream+0x9a>
 284:	2b b1       	in	r18, 0x0b	; 11
 286:	c6 01       	movw	r24, r12
 288:	00 c0       	rjmp	.+0      	; 0x28a <_ZN12CameraAL422B7readRowEP12OutputStream+0xa0>
 28a:	88 0f       	add	r24, r24
 28c:	99 1f       	adc	r25, r25
 28e:	3a 95       	dec	r19
 290:	02 f4       	brpl	.+0      	; 0x292 <_ZN12CameraAL422B7readRowEP12OutputStream+0xa8>
 292:	80 95       	com	r24
 294:	82 23       	and	r24, r18
 296:	8b b9       	out	0x0b, r24	; 11
 298:	00 c0       	rjmp	.+0      	; 0x29a <_ZN12CameraAL422B7readRowEP12OutputStream+0xb0>
 29a:	83 2f       	mov	r24, r19
 29c:	90 e0       	ldi	r25, 0x00	; 0
 29e:	3e 30       	cpi	r19, 0x0E	; 14
 2a0:	00 f0       	brcs	.+0      	; 0x2a2 <_ZN12CameraAL422B7readRowEP12OutputStream+0xb8>
 2a2:	28 b1       	in	r18, 0x08	; 8
 2a4:	0e 97       	sbiw	r24, 0x0e	; 14
 2a6:	a6 01       	movw	r20, r12
 2a8:	00 c0       	rjmp	.+0      	; 0x2aa <_ZN12CameraAL422B7readRowEP12OutputStream+0xc0>
 2aa:	44 0f       	add	r20, r20
 2ac:	55 1f       	adc	r21, r21
 2ae:	8a 95       	dec	r24
 2b0:	02 f4       	brpl	.+0      	; 0x2b2 <_ZN12CameraAL422B7readRowEP12OutputStream+0xc8>
 2b2:	ca 01       	movw	r24, r20
 2b4:	80 95       	com	r24
 2b6:	82 23       	and	r24, r18
 2b8:	88 b9       	out	0x08, r24	; 8
 2ba:	00 c0       	rjmp	.+0      	; 0x2bc <_ZN12CameraAL422B7readRowEP12OutputStream+0xd2>
 2bc:	25 b1       	in	r18, 0x05	; 5
 2be:	08 97       	sbiw	r24, 0x08	; 8
 2c0:	d6 01       	movw	r26, r12
 2c2:	00 c0       	rjmp	.+0      	; 0x2c4 <_ZN12CameraAL422B7readRowEP12OutputStream+0xda>
 2c4:	aa 0f       	add	r26, r26
 2c6:	bb 1f       	adc	r27, r27
 2c8:	8a 95       	dec	r24
 2ca:	02 f4       	brpl	.+0      	; 0x2cc <_ZN12CameraAL422B7readRowEP12OutputStream+0xe2>
 2cc:	cd 01       	movw	r24, r26
 2ce:	80 95       	com	r24
 2d0:	82 23       	and	r24, r18
 2d2:	85 b9       	out	0x05, r24	; 5
 2d4:	21 96       	adiw	r28, 0x01	; 1
 2d6:	f7 01       	movw	r30, r14
 2d8:	81 85       	ldd	r24, Z+9	; 0x09
 2da:	92 85       	ldd	r25, Z+10	; 0x0a
 2dc:	c8 17       	cp	r28, r24
 2de:	d9 07       	cpc	r29, r25
 2e0:	04 f4       	brge	.+0      	; 0x2e2 <_ZN12CameraAL422B7readRowEP12OutputStream+0xf8>
 2e2:	00 c0       	rjmp	.+0      	; 0x2e4 <_ZN12CameraAL422B7readRowEP12OutputStream+0xfa>
 2e4:	ce 01       	movw	r24, r28
 2e6:	df 91       	pop	r29
 2e8:	cf 91       	pop	r28
 2ea:	1f 91       	pop	r17
 2ec:	0f 91       	pop	r16
 2ee:	ff 90       	pop	r15
 2f0:	ef 90       	pop	r14
 2f2:	df 90       	pop	r13
 2f4:	cf 90       	pop	r12
 2f6:	bf 90       	pop	r11
 2f8:	af 90       	pop	r10
 2fa:	08 95       	ret

000002fc <_ZN12CameraAL422B12readRegisterENS_8RegisterE>:
 2fc:	ff 92       	push	r15
 2fe:	0f 93       	push	r16
 300:	1f 93       	push	r17
 302:	8c 01       	movw	r16, r24
 304:	f6 2e       	mov	r15, r22
 306:	80 e0       	ldi	r24, 0x00	; 0
 308:	90 e0       	ldi	r25, 0x00	; 0
 30a:	f8 01       	movw	r30, r16
 30c:	60 85       	ldd	r22, Z+8	; 0x08
 30e:	0e 94 00 00 	call	0	; 0x0 <_ZN12CameraAL422BC2EPFhvEhhhh>
 312:	80 e0       	ldi	r24, 0x00	; 0
 314:	90 e0       	ldi	r25, 0x00	; 0
 316:	6f 2d       	mov	r22, r15
 318:	0e 94 00 00 	call	0	; 0x0 <_ZN12CameraAL422BC2EPFhvEhhhh>
 31c:	80 e0       	ldi	r24, 0x00	; 0
 31e:	90 e0       	ldi	r25, 0x00	; 0
 320:	60 e0       	ldi	r22, 0x00	; 0
 322:	0e 94 00 00 	call	0	; 0x0 <_ZN12CameraAL422BC2EPFhvEhhhh>
 326:	80 e0       	ldi	r24, 0x00	; 0
 328:	90 e0       	ldi	r25, 0x00	; 0
 32a:	f8 01       	movw	r30, r16
 32c:	60 85       	ldd	r22, Z+8	; 0x08
 32e:	41 e0       	ldi	r20, 0x01	; 1
 330:	0e 94 00 00 	call	0	; 0x0 <_ZN12CameraAL422BC2EPFhvEhhhh>
 334:	00 c0       	rjmp	.+0      	; 0x336 <_ZN12CameraAL422B12readRegisterENS_8RegisterE+0x3a>
 336:	6a e0       	ldi	r22, 0x0A	; 10
 338:	70 e0       	ldi	r23, 0x00	; 0
 33a:	80 e0       	ldi	r24, 0x00	; 0
 33c:	90 e0       	ldi	r25, 0x00	; 0
 33e:	0e 94 00 00 	call	0	; 0x0 <_ZN12CameraAL422BC2EPFhvEhhhh>
 342:	80 e0       	ldi	r24, 0x00	; 0
 344:	90 e0       	ldi	r25, 0x00	; 0
 346:	0e 94 00 00 	call	0	; 0x0 <_ZN12CameraAL422BC2EPFhvEhhhh>
 34a:	89 2b       	or	r24, r25
 34c:	01 f0       	breq	.+0      	; 0x34e <_ZN12CameraAL422B12readRegisterENS_8RegisterE+0x52>
 34e:	80 e0       	ldi	r24, 0x00	; 0
 350:	90 e0       	ldi	r25, 0x00	; 0
 352:	0e 94 00 00 	call	0	; 0x0 <_ZN12CameraAL422BC2EPFhvEhhhh>
 356:	1f 91       	pop	r17
 358:	0f 91       	pop	r16
 35a:	ff 90       	pop	r15
 35c:	08 95       	ret

0000035e <_ZN12CameraAL422B13writeRegisterENS_8RegisterEh>:
 35e:	ef 92       	push	r14
 360:	ff 92       	push	r15
 362:	0f 93       	push	r16
 364:	1f 93       	push	r17
 366:	fc 01       	movw	r30, r24
 368:	f6 2e       	mov	r15, r22
 36a:	e4 2e       	mov	r14, r20
 36c:	00 e0       	ldi	r16, 0x00	; 0
 36e:	10 e0       	ldi	r17, 0x00	; 0
 370:	c8 01       	movw	r24, r16
 372:	60 85       	ldd	r22, Z+8	; 0x08
 374:	0e 94 00 00 	call	0	; 0x0 <_ZN12CameraAL422BC2EPFhvEhhhh>
 378:	c8 01       	movw	r24, r16
 37a:	6f 2d       	mov	r22, r15
 37c:	0e 94 00 00 	call	0	; 0x0 <_ZN12CameraAL422BC2EPFhvEhhhh>
 380:	c8 01       	movw	r24, r16
 382:	6e 2d       	mov	r22, r14
 384:	0e 94 00 00 	call	0	; 0x0 <_ZN12CameraAL422BC2EPFhvEhhhh>
 388:	c8 01       	movw	r24, r16
 38a:	0e 94 00 00 	call	0	; 0x0 <_ZN12CameraAL422BC2EPFhvEhhhh>
 38e:	1f 91       	pop	r17
 390:	0f 91       	pop	r16
 392:	ff 90       	pop	r15
 394:	ef 90       	pop	r14
 396:	08 95       	ret

00000398 <_ZN12CameraAL422B21configureRegisterBitsENS_8RegisterENS_4MaskEh>:
 398:	df 92       	push	r13
 39a:	ef 92       	push	r14
 39c:	ff 92       	push	r15
 39e:	0f 93       	push	r16
 3a0:	1f 93       	push	r17
 3a2:	7c 01       	movw	r14, r24
 3a4:	d6 2e       	mov	r13, r22
 3a6:	04 2f       	mov	r16, r20
 3a8:	12 2f       	mov	r17, r18
 3aa:	0e 94 00 00 	call	0	; 0x0 <_ZN12CameraAL422BC2EPFhvEhhhh>
 3ae:	40 2f       	mov	r20, r16
 3b0:	40 95       	com	r20
 3b2:	48 23       	and	r20, r24
 3b4:	10 23       	and	r17, r16
 3b6:	41 2b       	or	r20, r17
 3b8:	c7 01       	movw	r24, r14
 3ba:	6d 2d       	mov	r22, r13
 3bc:	0e 94 00 00 	call	0	; 0x0 <_ZN12CameraAL422BC2EPFhvEhhhh>
 3c0:	1f 91       	pop	r17
 3c2:	0f 91       	pop	r16
 3c4:	ff 90       	pop	r15
 3c6:	ef 90       	pop	r14
 3c8:	df 90       	pop	r13
 3ca:	08 95       	ret

000003cc <_ZN12CameraAL422B12setRGBOutputENS_9RGBOutputE>:
 3cc:	26 2f       	mov	r18, r22
 3ce:	60 e4       	ldi	r22, 0x40	; 64
 3d0:	40 e3       	ldi	r20, 0x30	; 48
 3d2:	0e 94 00 00 	call	0	; 0x0 <_ZN12CameraAL422BC2EPFhvEhhhh>
 3d6:	08 95       	ret

000003d8 <_ZN12CameraAL422B19setOutputResolutionENS_16OutputResolutionE>:
 3d8:	1f 93       	push	r17
 3da:	cf 93       	push	r28
 3dc:	df 93       	push	r29
 3de:	ec 01       	movw	r28, r24
 3e0:	16 2f       	mov	r17, r22
 3e2:	62 e1       	ldi	r22, 0x12	; 18
 3e4:	48 e3       	ldi	r20, 0x38	; 56
 3e6:	21 2f       	mov	r18, r17
 3e8:	0e 94 00 00 	call	0	; 0x0 <_ZN12CameraAL422BC2EPFhvEhhhh>
 3ec:	18 30       	cpi	r17, 0x08	; 8
 3ee:	01 f0       	breq	.+0      	; 0x3f0 <_ZN12CameraAL422B19setOutputResolutionENS_16OutputResolutionE+0x18>
 3f0:	19 30       	cpi	r17, 0x09	; 9
 3f2:	00 f4       	brcc	.+0      	; 0x3f4 <_ZN12CameraAL422B19setOutputResolutionENS_16OutputResolutionE+0x1c>
 3f4:	11 23       	and	r17, r17
 3f6:	01 f0       	breq	.+0      	; 0x3f8 <_ZN12CameraAL422B19setOutputResolutionENS_16OutputResolutionE+0x20>
 3f8:	00 c0       	rjmp	.+0      	; 0x3fa <_ZN12CameraAL422B19setOutputResolutionENS_16OutputResolutionE+0x22>
 3fa:	10 31       	cpi	r17, 0x10	; 16
 3fc:	01 f0       	breq	.+0      	; 0x3fe <_ZN12CameraAL422B19setOutputResolutionENS_16OutputResolutionE+0x26>
 3fe:	10 32       	cpi	r17, 0x20	; 32
 400:	01 f4       	brne	.+0      	; 0x402 <_ZN12CameraAL422B19setOutputResolutionENS_16OutputResolutionE+0x2a>
 402:	00 c0       	rjmp	.+0      	; 0x404 <_ZN12CameraAL422B19setOutputResolutionENS_16OutputResolutionE+0x2c>
 404:	80 e8       	ldi	r24, 0x80	; 128
 406:	92 e0       	ldi	r25, 0x02	; 2
 408:	9a 87       	std	Y+10, r25	; 0x0a
 40a:	89 87       	std	Y+9, r24	; 0x09
 40c:	80 ee       	ldi	r24, 0xE0	; 224
 40e:	91 e0       	ldi	r25, 0x01	; 1
 410:	00 c0       	rjmp	.+0      	; 0x412 <_ZN12CameraAL422B19setOutputResolutionENS_16OutputResolutionE+0x3a>
 412:	80 e4       	ldi	r24, 0x40	; 64
 414:	91 e0       	ldi	r25, 0x01	; 1
 416:	9a 87       	std	Y+10, r25	; 0x0a
 418:	89 87       	std	Y+9, r24	; 0x09
 41a:	80 ef       	ldi	r24, 0xF0	; 240
 41c:	90 e0       	ldi	r25, 0x00	; 0
 41e:	00 c0       	rjmp	.+0      	; 0x420 <_ZN12CameraAL422B19setOutputResolutionENS_16OutputResolutionE+0x48>
 420:	80 e6       	ldi	r24, 0x60	; 96
 422:	91 e0       	ldi	r25, 0x01	; 1
 424:	9a 87       	std	Y+10, r25	; 0x0a
 426:	89 87       	std	Y+9, r24	; 0x09
 428:	80 e2       	ldi	r24, 0x20	; 32
 42a:	91 e0       	ldi	r25, 0x01	; 1
 42c:	00 c0       	rjmp	.+0      	; 0x42e <_ZN12CameraAL422B19setOutputResolutionENS_16OutputResolutionE+0x56>
 42e:	80 eb       	ldi	r24, 0xB0	; 176
 430:	90 e0       	ldi	r25, 0x00	; 0
 432:	9a 87       	std	Y+10, r25	; 0x0a
 434:	89 87       	std	Y+9, r24	; 0x09
 436:	80 e9       	ldi	r24, 0x90	; 144
 438:	90 e0       	ldi	r25, 0x00	; 0
 43a:	9c 87       	std	Y+12, r25	; 0x0c
 43c:	8b 87       	std	Y+11, r24	; 0x0b
 43e:	df 91       	pop	r29
 440:	cf 91       	pop	r28
 442:	1f 91       	pop	r17
 444:	08 95       	ret

00000446 <_ZN12CameraAL422B15setOutputFormatENS_12OutputFormatE>:
 446:	26 2f       	mov	r18, r22
 448:	62 e1       	ldi	r22, 0x12	; 18
 44a:	45 e0       	ldi	r20, 0x05	; 5
 44c:	0e 94 00 00 	call	0	; 0x0 <_ZN12CameraAL422BC2EPFhvEhhhh>
 450:	08 95       	ret

00000452 <_ZN12CameraAL422B9readFrameEP12OutputStream>:
 452:	cf 92       	push	r12
 454:	df 92       	push	r13
 456:	ef 92       	push	r14
 458:	ff 92       	push	r15
 45a:	0f 93       	push	r16
 45c:	1f 93       	push	r17
 45e:	cf 93       	push	r28
 460:	df 93       	push	r29
 462:	7c 01       	movw	r14, r24
 464:	6b 01       	movw	r12, r22
 466:	fc 01       	movw	r30, r24
 468:	37 81       	ldd	r19, Z+7	; 0x07
 46a:	38 30       	cpi	r19, 0x08	; 8
 46c:	00 f4       	brcc	.+0      	; 0x46e <_ZN12CameraAL422B9readFrameEP12OutputStream+0x1c>
 46e:	2b b1       	in	r18, 0x0b	; 11
 470:	81 e0       	ldi	r24, 0x01	; 1
 472:	90 e0       	ldi	r25, 0x00	; 0
 474:	00 c0       	rjmp	.+0      	; 0x476 <_ZN12CameraAL422B9readFrameEP12OutputStream+0x24>
 476:	88 0f       	add	r24, r24
 478:	99 1f       	adc	r25, r25
 47a:	3a 95       	dec	r19
 47c:	02 f4       	brpl	.+0      	; 0x47e <_ZN12CameraAL422B9readFrameEP12OutputStream+0x2c>
 47e:	80 95       	com	r24
 480:	82 23       	and	r24, r18
 482:	8b b9       	out	0x0b, r24	; 11
 484:	00 c0       	rjmp	.+0      	; 0x486 <_ZN12CameraAL422B9readFrameEP12OutputStream+0x34>
 486:	43 2f       	mov	r20, r19
 488:	50 e0       	ldi	r21, 0x00	; 0
 48a:	3e 30       	cpi	r19, 0x0E	; 14
 48c:	00 f0       	brcs	.+0      	; 0x48e <_ZN12CameraAL422B9readFrameEP12OutputStream+0x3c>
 48e:	28 b1       	in	r18, 0x08	; 8
 490:	4e 50       	subi	r20, 0x0E	; 14
 492:	50 40       	sbci	r21, 0x00	; 0
 494:	81 e0       	ldi	r24, 0x01	; 1
 496:	90 e0       	ldi	r25, 0x00	; 0
 498:	00 c0       	rjmp	.+0      	; 0x49a <_ZN12CameraAL422B9readFrameEP12OutputStream+0x48>
 49a:	88 0f       	add	r24, r24
 49c:	99 1f       	adc	r25, r25
 49e:	4a 95       	dec	r20
 4a0:	02 f4       	brpl	.+0      	; 0x4a2 <_ZN12CameraAL422B9readFrameEP12OutputStream+0x50>
 4a2:	80 95       	com	r24
 4a4:	82 23       	and	r24, r18
 4a6:	88 b9       	out	0x08, r24	; 8
 4a8:	00 c0       	rjmp	.+0      	; 0x4aa <_ZN12CameraAL422B9readFrameEP12OutputStream+0x58>
 4aa:	25 b1       	in	r18, 0x05	; 5
 4ac:	48 50       	subi	r20, 0x08	; 8
 4ae:	50 40       	sbci	r21, 0x00	; 0
 4b0:	81 e0       	ldi	r24, 0x01	; 1
 4b2:	90 e0       	ldi	r25, 0x00	; 0
 4b4:	00 c0       	rjmp	.+0      	; 0x4b6 <_ZN12CameraAL422B9readFrameEP12OutputStream+0x64>
 4b6:	88 0f       	add	r24, r24
 4b8:	99 1f       	adc	r25, r25
 4ba:	4a 95       	dec	r20
 4bc:	02 f4       	brpl	.+0      	; 0x4be <_ZN12CameraAL422B9readFrameEP12OutputStream+0x6c>
 4be:	80 95       	com	r24
 4c0:	82 23       	and	r24, r18
 4c2:	85 b9       	out	0x05, r24	; 5
 4c4:	84 e6       	ldi	r24, 0x64	; 100
 4c6:	90 e0       	ldi	r25, 0x00	; 0
 4c8:	0e 94 00 00 	call	0	; 0x0 <_ZN12CameraAL422BC2EPFhvEhhhh>
 4cc:	f7 01       	movw	r30, r14
 4ce:	37 81       	ldd	r19, Z+7	; 0x07
 4d0:	38 30       	cpi	r19, 0x08	; 8
 4d2:	00 f4       	brcc	.+0      	; 0x4d4 <_ZN12CameraAL422B9readFrameEP12OutputStream+0x82>
 4d4:	2b b1       	in	r18, 0x0b	; 11
 4d6:	81 e0       	ldi	r24, 0x01	; 1
 4d8:	90 e0       	ldi	r25, 0x00	; 0
 4da:	00 c0       	rjmp	.+0      	; 0x4dc <_ZN12CameraAL422B9readFrameEP12OutputStream+0x8a>
 4dc:	88 0f       	add	r24, r24
 4de:	99 1f       	adc	r25, r25
 4e0:	3a 95       	dec	r19
 4e2:	02 f4       	brpl	.+0      	; 0x4e4 <_ZN12CameraAL422B9readFrameEP12OutputStream+0x92>
 4e4:	28 2b       	or	r18, r24
 4e6:	2b b9       	out	0x0b, r18	; 11
 4e8:	00 c0       	rjmp	.+0      	; 0x4ea <_ZN12CameraAL422B9readFrameEP12OutputStream+0x98>
 4ea:	43 2f       	mov	r20, r19
 4ec:	50 e0       	ldi	r21, 0x00	; 0
 4ee:	3e 30       	cpi	r19, 0x0E	; 14
 4f0:	00 f0       	brcs	.+0      	; 0x4f2 <_ZN12CameraAL422B9readFrameEP12OutputStream+0xa0>
 4f2:	28 b1       	in	r18, 0x08	; 8
 4f4:	4e 50       	subi	r20, 0x0E	; 14
 4f6:	50 40       	sbci	r21, 0x00	; 0
 4f8:	81 e0       	ldi	r24, 0x01	; 1
 4fa:	90 e0       	ldi	r25, 0x00	; 0
 4fc:	00 c0       	rjmp	.+0      	; 0x4fe <_ZN12CameraAL422B9readFrameEP12OutputStream+0xac>
 4fe:	88 0f       	add	r24, r24
 500:	99 1f       	adc	r25, r25
 502:	4a 95       	dec	r20
 504:	02 f4       	brpl	.+0      	; 0x506 <_ZN12CameraAL422B9readFrameEP12OutputStream+0xb4>
 506:	28 2b       	or	r18, r24
 508:	28 b9       	out	0x08, r18	; 8
 50a:	00 c0       	rjmp	.+0      	; 0x50c <_ZN12CameraAL422B9readFrameEP12OutputStream+0xba>
 50c:	25 b1       	in	r18, 0x05	; 5
 50e:	48 50       	subi	r20, 0x08	; 8
 510:	50 40       	sbci	r21, 0x00	; 0
 512:	81 e0       	ldi	r24, 0x01	; 1
 514:	90 e0       	ldi	r25, 0x00	; 0
 516:	00 c0       	rjmp	.+0      	; 0x518 <_ZN12CameraAL422B9readFrameEP12OutputStream+0xc6>
 518:	88 0f       	add	r24, r24
 51a:	99 1f       	adc	r25, r25
 51c:	4a 95       	dec	r20
 51e:	02 f4       	brpl	.+0      	; 0x520 <_ZN12CameraAL422B9readFrameEP12OutputStream+0xce>
 520:	28 2b       	or	r18, r24
 522:	25 b9       	out	0x05, r18	; 5
 524:	00 e0       	ldi	r16, 0x00	; 0
 526:	10 e0       	ldi	r17, 0x00	; 0
 528:	c0 e0       	ldi	r28, 0x00	; 0
 52a:	d0 e0       	ldi	r29, 0x00	; 0
 52c:	00 c0       	rjmp	.+0      	; 0x52e <_ZN12CameraAL422B9readFrameEP12OutputStream+0xdc>
 52e:	c7 01       	movw	r24, r14
 530:	b6 01       	movw	r22, r12
 532:	0e 94 00 00 	call	0	; 0x0 <_ZN12CameraAL422BC2EPFhvEhhhh>
 536:	c8 0f       	add	r28, r24
 538:	d9 1f       	adc	r29, r25
 53a:	0f 5f       	subi	r16, 0xFF	; 255
 53c:	1f 4f       	sbci	r17, 0xFF	; 255
 53e:	f7 01       	movw	r30, r14
 540:	83 85       	ldd	r24, Z+11	; 0x0b
 542:	94 85       	ldd	r25, Z+12	; 0x0c
 544:	08 17       	cp	r16, r24
 546:	19 07       	cpc	r17, r25
 548:	04 f0       	brlt	.+0      	; 0x54a <_ZN12CameraAL422B9readFrameEP12OutputStream+0xf8>
 54a:	ce 01       	movw	r24, r28
 54c:	df 91       	pop	r29
 54e:	cf 91       	pop	r28
 550:	1f 91       	pop	r17
 552:	0f 91       	pop	r16
 554:	ff 90       	pop	r15
 556:	ef 90       	pop	r14
 558:	df 90       	pop	r13
 55a:	cf 90       	pop	r12
 55c:	08 95       	ret

0000055e <_ZN12CameraAL422B5beginEv>:
 55e:	0f 93       	push	r16
 560:	1f 93       	push	r17
 562:	8c 01       	movw	r16, r24
 564:	80 e0       	ldi	r24, 0x00	; 0
 566:	90 e0       	ldi	r25, 0x00	; 0
 568:	0e 94 00 00 	call	0	; 0x0 <_ZN12CameraAL422BC2EPFhvEhhhh>
 56c:	f8 01       	movw	r30, r16
 56e:	84 81       	ldd	r24, Z+4	; 0x04
 570:	60 e0       	ldi	r22, 0x00	; 0
 572:	0e 94 00 00 	call	0	; 0x0 <_ZN12CameraAL422BC2EPFhvEhhhh>
 576:	f8 01       	movw	r30, r16
 578:	85 81       	ldd	r24, Z+5	; 0x05
 57a:	61 e0       	ldi	r22, 0x01	; 1
 57c:	0e 94 00 00 	call	0	; 0x0 <_ZN12CameraAL422BC2EPFhvEhhhh>
 580:	f8 01       	movw	r30, r16
 582:	86 81       	ldd	r24, Z+6	; 0x06
 584:	61 e0       	ldi	r22, 0x01	; 1
 586:	0e 94 00 00 	call	0	; 0x0 <_ZN12CameraAL422BC2EPFhvEhhhh>
 58a:	f8 01       	movw	r30, r16
 58c:	87 81       	ldd	r24, Z+7	; 0x07
 58e:	61 e0       	ldi	r22, 0x01	; 1
 590:	0e 94 00 00 	call	0	; 0x0 <_ZN12CameraAL422BC2EPFhvEhhhh>
 594:	c8 01       	movw	r24, r16
 596:	62 e1       	ldi	r22, 0x12	; 18
 598:	40 e8       	ldi	r20, 0x80	; 128
 59a:	2f ef       	ldi	r18, 0xFF	; 255
 59c:	0e 94 00 00 	call	0	; 0x0 <_ZN12CameraAL422BC2EPFhvEhhhh>
 5a0:	f8 01       	movw	r30, r16
 5a2:	35 81       	ldd	r19, Z+5	; 0x05
 5a4:	38 30       	cpi	r19, 0x08	; 8
 5a6:	00 f4       	brcc	.+0      	; 0x5a8 <_ZN12CameraAL422B5beginEv+0x4a>
 5a8:	2b b1       	in	r18, 0x0b	; 11
 5aa:	81 e0       	ldi	r24, 0x01	; 1
 5ac:	90 e0       	ldi	r25, 0x00	; 0
 5ae:	00 c0       	rjmp	.+0      	; 0x5b0 <_ZN12CameraAL422B5beginEv+0x52>
 5b0:	88 0f       	add	r24, r24
 5b2:	99 1f       	adc	r25, r25
 5b4:	3a 95       	dec	r19
 5b6:	02 f4       	brpl	.+0      	; 0x5b8 <_ZN12CameraAL422B5beginEv+0x5a>
 5b8:	28 2b       	or	r18, r24
 5ba:	2b b9       	out	0x0b, r18	; 11
 5bc:	00 c0       	rjmp	.+0      	; 0x5be <_ZN12CameraAL422B5beginEv+0x60>
 5be:	43 2f       	mov	r20, r19
 5c0:	50 e0       	ldi	r21, 0x00	; 0
 5c2:	3e 30       	cpi	r19, 0x0E	; 14
 5c4:	00 f0       	brcs	.+0      	; 0x5c6 <_ZN12CameraAL422B5beginEv+0x68>
 5c6:	28 b1       	in	r18, 0x08	; 8
 5c8:	4e 50       	subi	r20, 0x0E	; 14
 5ca:	50 40       	sbci	r21, 0x00	; 0
 5cc:	81 e0       	ldi	r24, 0x01	; 1
 5ce:	90 e0       	ldi	r25, 0x00	; 0
 5d0:	00 c0       	rjmp	.+0      	; 0x5d2 <_ZN12CameraAL422B5beginEv+0x74>
 5d2:	88 0f       	add	r24, r24
 5d4:	99 1f       	adc	r25, r25
 5d6:	4a 95       	dec	r20
 5d8:	02 f4       	brpl	.+0      	; 0x5da <_ZN12CameraAL422B5beginEv+0x7c>
 5da:	28 2b       	or	r18, r24
 5dc:	28 b9       	out	0x08, r18	; 8
 5de:	00 c0       	rjmp	.+0      	; 0x5e0 <_ZN12CameraAL422B5beginEv+0x82>
 5e0:	25 b1       	in	r18, 0x05	; 5
 5e2:	48 50       	subi	r20, 0x08	; 8
 5e4:	50 40       	sbci	r21, 0x00	; 0
 5e6:	81 e0       	ldi	r24, 0x01	; 1
 5e8:	90 e0       	ldi	r25, 0x00	; 0
 5ea:	00 c0       	rjmp	.+0      	; 0x5ec <_ZN12CameraAL422B5beginEv+0x8e>
 5ec:	88 0f       	add	r24, r24
 5ee:	99 1f       	adc	r25, r25
 5f0:	4a 95       	dec	r20
 5f2:	02 f4       	brpl	.+0      	; 0x5f4 <_ZN12CameraAL422B5beginEv+0x96>
 5f4:	28 2b       	or	r18, r24
 5f6:	25 b9       	out	0x05, r18	; 5
 5f8:	84 e6       	ldi	r24, 0x64	; 100
 5fa:	90 e0       	ldi	r25, 0x00	; 0
 5fc:	0e 94 00 00 	call	0	; 0x0 <_ZN12CameraAL422BC2EPFhvEhhhh>
 600:	1f 91       	pop	r17
 602:	0f 91       	pop	r16
 604:	08 95       	ret

Camera.o:     file format elf32-avr

Sections:
Idx Name          Size      VMA       LMA       File off  Algn
  0 .text         00000000  00000000  00000000  00000034  2**0
                  CONTENTS, ALLOC, LOAD, READONLY, CODE
  1 .data         00000000  00000000  00000000  00000034  2**0
                  CONTENTS, ALLOC, LOAD, DATA
  2 .bss          00000000  00000000  00000000  00000034  2**0
                  ALLOC

specs.o:     file format elf32-avr

Sections:
Idx Name          Size      VMA       LMA       File off  Algn
  0 .text         00000000  00000000  00000000  00000034  2**0
                  CONTENTS, ALLOC, LOAD, READONLY, CODE
  1 .data         00000000  00000000  00000000  00000034  2**0
                  CONTENTS, ALLOC, LOAD, DATA
  2 .bss          00000000  00000000  00000000  00000034  2**0
                  ALLOC
